GAS LISTING C:\Users\GTSAIN~1\AppData\Local\Temp\cceY9Tve.s 			page 1


   1              		.file	"pwm.c"
   2              		.option nopic
   3              		.attribute arch, "rv32i2p0_m2p0_a2p0_c2p0"
   4              		.attribute unaligned_access, 0
   5              		.attribute stack_align, 16
   6              		.text
   7              	.Ltext0:
   8              		.cfi_sections	.debug_frame
   9              		.section	.text.T1powerUpInitPWM,"ax",@progbits
  10              		.align	1
  11              		.globl	T1powerUpInitPWM
  13              	T1powerUpInitPWM:
  14              	.LFB2:
  15              		.file 1 "pwm.c"
   1:pwm.c         **** #include "pwm.h"
   2:pwm.c         **** 
   3:pwm.c         **** void T1powerUpInitPWM(uint16_t ch){
  16              		.loc 1 3 35
  17              		.cfi_startproc
  18              	.LVL0:
   4:pwm.c         ****     timer_oc_parameter_struct timer_ocinitpara;
  19              		.loc 1 4 5
   5:pwm.c         ****     timer_parameter_struct timer_initpara;
  20              		.loc 1 5 5
   6:pwm.c         ****     rcu_periph_clock_enable(RCU_GPIOA);
  21              		.loc 1 6 5
   3:pwm.c         ****     timer_oc_parameter_struct timer_ocinitpara;
  22              		.loc 1 3 35 is_stmt 0
  23 0000 3971     		addi	sp,sp,-64
  24              	.LCFI0:
  25              		.cfi_def_cfa_offset 64
  26 0002 22DC     		sw	s0,56(sp)
  27              		.cfi_offset 8, -8
  28 0004 2A84     		mv	s0,a0
  29              		.loc 1 6 5
  30 0006 13052060 		li	a0,1538
  31              	.LVL1:
   3:pwm.c         ****     timer_oc_parameter_struct timer_ocinitpara;
  32              		.loc 1 3 35
  33 000a 4ED6     		sw	s3,44(sp)
  34 000c 06DE     		sw	ra,60(sp)
  35 000e 26DA     		sw	s1,52(sp)
  36 0010 4AD8     		sw	s2,48(sp)
  37              		.cfi_offset 19, -20
  38              		.cfi_offset 1, -4
  39              		.cfi_offset 9, -12
  40              		.cfi_offset 18, -16
  41              		.loc 1 6 5
  42 0012 97000000 		call	rcu_periph_clock_enable
  42      E7800000 
  43              	.LVL2:
   7:pwm.c         ****     rcu_periph_clock_enable(RCU_AF);
  44              		.loc 1 7 5 is_stmt 1
  45 001a 93791400 		andi	s3,s0,1
  46 001e 13050060 		li	a0,1536
  47 0022 97000000 		call	rcu_periph_clock_enable
  47      E7800000 
GAS LISTING C:\Users\GTSAIN~1\AppData\Local\Temp\cceY9Tve.s 			page 2


  48              	.LVL3:
   8:pwm.c         ****     if (ch&0x1) gpio_init(GPIOA, GPIO_MODE_AF_PP, GPIO_OSPEED_50MHZ, GPIO_PIN_0);
  49              		.loc 1 8 5
  50              		.loc 1 8 8 is_stmt 0
  51 002a 639B0922 		bne	s3,zero,.L52
  52              	.L2:
   9:pwm.c         ****     if (ch&0x2) gpio_init(GPIOA, GPIO_MODE_AF_PP, GPIO_OSPEED_50MHZ, GPIO_PIN_1);
  53              		.loc 1 9 5 is_stmt 1
  54 002e 13792400 		andi	s2,s0,2
  55              		.loc 1 9 8 is_stmt 0
  56 0032 631B0920 		bne	s2,zero,.L53
  57              	.L3:
  10:pwm.c         ****     if (ch&0x4) gpio_init(GPIOA, GPIO_MODE_AF_PP, GPIO_OSPEED_50MHZ, GPIO_PIN_2);
  58              		.loc 1 10 5 is_stmt 1
  59 0036 93744400 		andi	s1,s0,4
  60              		.loc 1 10 8 is_stmt 0
  61 003a 639B041E 		bne	s1,zero,.L54
  62              	.L4:
  11:pwm.c         ****     if (ch&0x8) gpio_init(GPIOA, GPIO_MODE_AF_PP, GPIO_OSPEED_50MHZ, GPIO_PIN_3);
  63              		.loc 1 11 5 is_stmt 1
  64 003e 2188     		andi	s0,s0,8
  65              		.loc 1 11 8 is_stmt 0
  66 0040 631C041C 		bne	s0,zero,.L55
  67              	.L5:
  12:pwm.c         ****     rcu_periph_clock_enable(RCU_TIMER1);
  68              		.loc 1 12 5 is_stmt 1
  69 0044 13050070 		li	a0,1792
  70 0048 97000000 		call	rcu_periph_clock_enable
  70      E7800000 
  71              	.LVL4:
  13:pwm.c         **** 
  14:pwm.c         ****     timer_deinit(TIMER1);
  72              		.loc 1 14 5
  73 0050 37050040 		li	a0,1073741824
  74 0054 97000000 		call	timer_deinit
  74      E7800000 
  75              	.LVL5:
  15:pwm.c         ****     timer_struct_para_init(&timer_initpara);
  76              		.loc 1 15 5
  77 005c 0808     		addi	a0,sp,16
  78 005e 97000000 		call	timer_struct_para_init
  78      E7800000 
  79              	.LVL6:
  16:pwm.c         ****     timer_initpara.prescaler         = 107;
  80              		.loc 1 16 5
  17:pwm.c         ****     timer_initpara.alignedmode       = TIMER_COUNTER_EDGE;
  81              		.loc 1 17 5
  18:pwm.c         ****     timer_initpara.counterdirection  = TIMER_COUNTER_UP;
  82              		.loc 1 18 5
  16:pwm.c         ****     timer_initpara.prescaler         = 107;
  83              		.loc 1 16 38 is_stmt 0
  84 0066 9307B006 		li	a5,107
  85 006a 3EC8     		sw	a5,16(sp)
  19:pwm.c         ****     timer_initpara.period            = 15999;
  86              		.loc 1 19 38
  87 006c 9167     		li	a5,16384
  88 006e 9387F7E7 		addi	a5,a5,-385
GAS LISTING C:\Users\GTSAIN~1\AppData\Local\Temp\cceY9Tve.s 			page 3


  20:pwm.c         ****     timer_initpara.clockdivision     = TIMER_CKDIV_DIV1;
  21:pwm.c         ****     timer_initpara.repetitioncounter = 0;
  22:pwm.c         ****     timer_init(TIMER1, &timer_initpara);
  89              		.loc 1 22 5
  90 0072 0C08     		addi	a1,sp,16
  91 0074 37050040 		li	a0,1073741824
  19:pwm.c         ****     timer_initpara.period            = 15999;
  92              		.loc 1 19 38
  93 0078 3ECC     		sw	a5,24(sp)
  18:pwm.c         ****     timer_initpara.period            = 15999;
  94              		.loc 1 18 38
  95 007a 231A0100 		sh	zero,20(sp)
  19:pwm.c         ****     timer_initpara.period            = 15999;
  96              		.loc 1 19 5 is_stmt 1
  20:pwm.c         ****     timer_initpara.clockdivision     = TIMER_CKDIV_DIV1;
  97              		.loc 1 20 5
  20:pwm.c         ****     timer_initpara.clockdivision     = TIMER_CKDIV_DIV1;
  98              		.loc 1 20 38 is_stmt 0
  99 007e 231E0100 		sh	zero,28(sp)
  21:pwm.c         ****     timer_init(TIMER1, &timer_initpara);
 100              		.loc 1 21 5 is_stmt 1
  21:pwm.c         ****     timer_init(TIMER1, &timer_initpara);
 101              		.loc 1 21 38 is_stmt 0
 102 0082 230F0100 		sb	zero,30(sp)
 103              		.loc 1 22 5 is_stmt 1
 104 0086 97000000 		call	timer_init
 104      E7800000 
 105              	.LVL7:
  23:pwm.c         **** 
  24:pwm.c         ****     timer_channel_output_struct_para_init(&timer_ocinitpara);
 106              		.loc 1 24 5
 107 008e 4800     		addi	a0,sp,4
 108 0090 97000000 		call	timer_channel_output_struct_para_init
 108      E7800000 
 109              	.LVL8:
  25:pwm.c         ****     timer_ocinitpara.outputstate  = TIMER_CCX_ENABLE;
 110              		.loc 1 25 5
  26:pwm.c         ****     timer_ocinitpara.outputnstate = TIMER_CCXN_DISABLE;
 111              		.loc 1 26 5
  27:pwm.c         ****     timer_ocinitpara.ocpolarity   = TIMER_OC_POLARITY_HIGH;
 112              		.loc 1 27 5
  28:pwm.c         ****     timer_ocinitpara.ocnpolarity  = TIMER_OCN_POLARITY_HIGH;
 113              		.loc 1 28 5
  29:pwm.c         ****     timer_ocinitpara.ocidlestate  = TIMER_OC_IDLE_STATE_LOW;
 114              		.loc 1 29 5
  30:pwm.c         ****     timer_ocinitpara.ocnidlestate = TIMER_OCN_IDLE_STATE_LOW;
 115              		.loc 1 30 5
  25:pwm.c         ****     timer_ocinitpara.outputnstate = TIMER_CCXN_DISABLE;
 116              		.loc 1 25 35 is_stmt 0
 117 0098 8547     		li	a5,1
 118 009a 3EC2     		sw	a5,4(sp)
  27:pwm.c         ****     timer_ocinitpara.ocnpolarity  = TIMER_OCN_POLARITY_HIGH;
 119              		.loc 1 27 35
 120 009c 02C4     		sw	zero,8(sp)
  29:pwm.c         ****     timer_ocinitpara.ocnidlestate = TIMER_OCN_IDLE_STATE_LOW;
 121              		.loc 1 29 35
 122 009e 02C6     		sw	zero,12(sp)
GAS LISTING C:\Users\GTSAIN~1\AppData\Local\Temp\cceY9Tve.s 			page 4


  31:pwm.c         ****     if (ch&0x1) timer_channel_output_config(TIMER1,TIMER_CH_0,&timer_ocinitpara);
 123              		.loc 1 31 5 is_stmt 1
 124              		.loc 1 31 8 is_stmt 0
 125 00a0 63910916 		bne	s3,zero,.L56
  32:pwm.c         ****     if (ch&0x2) timer_channel_output_config(TIMER1,TIMER_CH_1,&timer_ocinitpara);
 126              		.loc 1 32 5 is_stmt 1
 127              		.loc 1 32 8 is_stmt 0
 128 00a4 63140914 		bne	s2,zero,.L57
 129              	.L7:
  33:pwm.c         ****     if (ch&0x4) timer_channel_output_config(TIMER1,TIMER_CH_2,&timer_ocinitpara);
 130              		.loc 1 33 5 is_stmt 1
 131              		.loc 1 33 8 is_stmt 0
 132 00a8 63970412 		bne	s1,zero,.L58
 133              	.L8:
  34:pwm.c         ****     if (ch&0x8) timer_channel_output_config(TIMER1,TIMER_CH_3,&timer_ocinitpara);
 134              		.loc 1 34 5 is_stmt 1
 135              		.loc 1 34 8 is_stmt 0
 136 00ac 631A0410 		bne	s0,zero,.L59
 137              	.L9:
  35:pwm.c         **** 
  36:pwm.c         ****     if (ch&0x1) {
 138              		.loc 1 36 5 is_stmt 1
 139              		.loc 1 36 8 is_stmt 0
 140 00b0 639C090C 		bne	s3,zero,.L60
 141              	.L10:
  37:pwm.c         ****         timer_channel_output_pulse_value_config(TIMER1,TIMER_CH_0,0);
  38:pwm.c         ****         timer_channel_output_mode_config(TIMER1,TIMER_CH_0,TIMER_OC_MODE_PWM0);
  39:pwm.c         ****         timer_channel_output_shadow_config(TIMER1,TIMER_CH_0,TIMER_OC_SHADOW_DISABLE);
  40:pwm.c         ****     }
  41:pwm.c         ****    if (ch&0x2) {
 142              		.loc 1 41 4 is_stmt 1
 143              		.loc 1 41 7 is_stmt 0
 144 00b4 631F0908 		bne	s2,zero,.L61
 145              	.L11:
  42:pwm.c         ****         timer_channel_output_pulse_value_config(TIMER1,TIMER_CH_1,0);
  43:pwm.c         ****         timer_channel_output_mode_config(TIMER1,TIMER_CH_1,TIMER_OC_MODE_PWM0);
  44:pwm.c         ****         timer_channel_output_shadow_config(TIMER1,TIMER_CH_1,TIMER_OC_SHADOW_DISABLE);
  45:pwm.c         ****     }
  46:pwm.c         ****    if (ch&0x4) {
 146              		.loc 1 46 4 is_stmt 1
 147              		.loc 1 46 7 is_stmt 0
 148 00b8 8DE4     		bne	s1,zero,.L62
 149              	.L12:
  47:pwm.c         ****         timer_channel_output_pulse_value_config(TIMER1,TIMER_CH_2,11999);
  48:pwm.c         ****         timer_channel_output_mode_config(TIMER1,TIMER_CH_2,TIMER_OC_MODE_PWM0);
  49:pwm.c         ****         timer_channel_output_shadow_config(TIMER1,TIMER_CH_2,TIMER_OC_SHADOW_DISABLE);
  50:pwm.c         ****     }
  51:pwm.c         ****    if (ch&0x8) {
 150              		.loc 1 51 4 is_stmt 1
 151              		.loc 1 51 7 is_stmt 0
 152 00ba 25E0     		bne	s0,zero,.L63
 153              	.L13:
  52:pwm.c         ****         timer_channel_output_pulse_value_config(TIMER1,TIMER_CH_3,11999);
  53:pwm.c         ****         timer_channel_output_mode_config(TIMER1,TIMER_CH_3,TIMER_OC_MODE_PWM0);
  54:pwm.c         ****         timer_channel_output_shadow_config(TIMER1,TIMER_CH_3,TIMER_OC_SHADOW_DISABLE);
  55:pwm.c         ****     }
  56:pwm.c         ****     
GAS LISTING C:\Users\GTSAIN~1\AppData\Local\Temp\cceY9Tve.s 			page 5


  57:pwm.c         ****     timer_auto_reload_shadow_enable(TIMER1);
 154              		.loc 1 57 5 is_stmt 1
 155 00bc 37050040 		li	a0,1073741824
 156 00c0 97000000 		call	timer_auto_reload_shadow_enable
 156      E7800000 
 157              	.LVL9:
  58:pwm.c         ****     timer_enable(TIMER1);
 158              		.loc 1 58 5
 159 00c8 37050040 		li	a0,1073741824
 160 00cc 97000000 		call	timer_enable
 160      E7800000 
 161              	.LVL10:
  59:pwm.c         **** }
 162              		.loc 1 59 1 is_stmt 0
 163 00d4 F250     		lw	ra,60(sp)
 164              		.cfi_remember_state
 165              		.cfi_restore 1
 166 00d6 6254     		lw	s0,56(sp)
 167              		.cfi_restore 8
 168 00d8 D254     		lw	s1,52(sp)
 169              		.cfi_restore 9
 170 00da 4259     		lw	s2,48(sp)
 171              		.cfi_restore 18
 172 00dc B259     		lw	s3,44(sp)
 173              		.cfi_restore 19
 174 00de 2161     		addi	sp,sp,64
 175              	.LCFI1:
 176              		.cfi_def_cfa_offset 0
 177 00e0 8280     		jr	ra
 178              	.L62:
 179              	.LCFI2:
 180              		.cfi_restore_state
  47:pwm.c         ****         timer_channel_output_mode_config(TIMER1,TIMER_CH_2,TIMER_OC_MODE_PWM0);
 181              		.loc 1 47 9 is_stmt 1
 182 00e2 0D66     		li	a2,12288
 183 00e4 1306F6ED 		addi	a2,a2,-289
 184 00e8 8945     		li	a1,2
 185 00ea 37050040 		li	a0,1073741824
 186 00ee 97000000 		call	timer_channel_output_pulse_value_config
 186      E7800000 
 187              	.LVL11:
  48:pwm.c         ****         timer_channel_output_shadow_config(TIMER1,TIMER_CH_2,TIMER_OC_SHADOW_DISABLE);
 188              		.loc 1 48 9
 189 00f6 13060006 		li	a2,96
 190 00fa 8945     		li	a1,2
 191 00fc 37050040 		li	a0,1073741824
 192 0100 97000000 		call	timer_channel_output_mode_config
 192      E7800000 
 193              	.LVL12:
  49:pwm.c         ****     }
 194              		.loc 1 49 9
 195 0108 0146     		li	a2,0
 196 010a 8945     		li	a1,2
 197 010c 37050040 		li	a0,1073741824
 198 0110 97000000 		call	timer_channel_output_shadow_config
 198      E7800000 
 199              	.LVL13:
GAS LISTING C:\Users\GTSAIN~1\AppData\Local\Temp\cceY9Tve.s 			page 6


  51:pwm.c         ****         timer_channel_output_pulse_value_config(TIMER1,TIMER_CH_3,11999);
 200              		.loc 1 51 4
  51:pwm.c         ****         timer_channel_output_pulse_value_config(TIMER1,TIMER_CH_3,11999);
 201              		.loc 1 51 7 is_stmt 0
 202 0118 55D0     		beq	s0,zero,.L13
 203              	.L63:
  52:pwm.c         ****         timer_channel_output_mode_config(TIMER1,TIMER_CH_3,TIMER_OC_MODE_PWM0);
 204              		.loc 1 52 9 is_stmt 1
 205 011a 0D66     		li	a2,12288
 206 011c 1306F6ED 		addi	a2,a2,-289
 207 0120 8D45     		li	a1,3
 208 0122 37050040 		li	a0,1073741824
 209 0126 97000000 		call	timer_channel_output_pulse_value_config
 209      E7800000 
 210              	.LVL14:
  53:pwm.c         ****         timer_channel_output_shadow_config(TIMER1,TIMER_CH_3,TIMER_OC_SHADOW_DISABLE);
 211              		.loc 1 53 9
 212 012e 13060006 		li	a2,96
 213 0132 8D45     		li	a1,3
 214 0134 37050040 		li	a0,1073741824
 215 0138 97000000 		call	timer_channel_output_mode_config
 215      E7800000 
 216              	.LVL15:
  54:pwm.c         ****     }
 217              		.loc 1 54 9
 218 0140 0146     		li	a2,0
 219 0142 8D45     		li	a1,3
 220 0144 37050040 		li	a0,1073741824
 221 0148 97000000 		call	timer_channel_output_shadow_config
 221      E7800000 
 222              	.LVL16:
 223 0150 B5B7     		j	.L13
 224              	.L61:
  42:pwm.c         ****         timer_channel_output_mode_config(TIMER1,TIMER_CH_1,TIMER_OC_MODE_PWM0);
 225              		.loc 1 42 9
 226 0152 0146     		li	a2,0
 227 0154 8545     		li	a1,1
 228 0156 37050040 		li	a0,1073741824
 229 015a 97000000 		call	timer_channel_output_pulse_value_config
 229      E7800000 
 230              	.LVL17:
  43:pwm.c         ****         timer_channel_output_shadow_config(TIMER1,TIMER_CH_1,TIMER_OC_SHADOW_DISABLE);
 231              		.loc 1 43 9
 232 0162 13060006 		li	a2,96
 233 0166 8545     		li	a1,1
 234 0168 37050040 		li	a0,1073741824
 235 016c 97000000 		call	timer_channel_output_mode_config
 235      E7800000 
 236              	.LVL18:
  44:pwm.c         ****     }
 237              		.loc 1 44 9
 238 0174 0146     		li	a2,0
 239 0176 8545     		li	a1,1
 240 0178 37050040 		li	a0,1073741824
 241 017c 97000000 		call	timer_channel_output_shadow_config
 241      E7800000 
 242              	.LVL19:
GAS LISTING C:\Users\GTSAIN~1\AppData\Local\Temp\cceY9Tve.s 			page 7


  46:pwm.c         ****         timer_channel_output_pulse_value_config(TIMER1,TIMER_CH_2,11999);
 243              		.loc 1 46 4
  46:pwm.c         ****         timer_channel_output_pulse_value_config(TIMER1,TIMER_CH_2,11999);
 244              		.loc 1 46 7 is_stmt 0
 245 0184 9DD8     		beq	s1,zero,.L12
 246 0186 B1BF     		j	.L62
 247              	.L60:
  37:pwm.c         ****         timer_channel_output_mode_config(TIMER1,TIMER_CH_0,TIMER_OC_MODE_PWM0);
 248              		.loc 1 37 9 is_stmt 1
 249 0188 0146     		li	a2,0
 250 018a 8145     		li	a1,0
 251 018c 37050040 		li	a0,1073741824
 252 0190 97000000 		call	timer_channel_output_pulse_value_config
 252      E7800000 
 253              	.LVL20:
  38:pwm.c         ****         timer_channel_output_shadow_config(TIMER1,TIMER_CH_0,TIMER_OC_SHADOW_DISABLE);
 254              		.loc 1 38 9
 255 0198 13060006 		li	a2,96
 256 019c 8145     		li	a1,0
 257 019e 37050040 		li	a0,1073741824
 258 01a2 97000000 		call	timer_channel_output_mode_config
 258      E7800000 
 259              	.LVL21:
  39:pwm.c         ****     }
 260              		.loc 1 39 9
 261 01aa 0146     		li	a2,0
 262 01ac 8145     		li	a1,0
 263 01ae 37050040 		li	a0,1073741824
 264 01b2 97000000 		call	timer_channel_output_shadow_config
 264      E7800000 
 265              	.LVL22:
  41:pwm.c         ****         timer_channel_output_pulse_value_config(TIMER1,TIMER_CH_1,0);
 266              		.loc 1 41 4
  41:pwm.c         ****         timer_channel_output_pulse_value_config(TIMER1,TIMER_CH_1,0);
 267              		.loc 1 41 7 is_stmt 0
 268 01ba E30F09EE 		beq	s2,zero,.L11
 269 01be 51BF     		j	.L61
 270              	.L59:
  34:pwm.c         **** 
 271              		.loc 1 34 17 is_stmt 1 discriminator 1
 272 01c0 5000     		addi	a2,sp,4
 273 01c2 8D45     		li	a1,3
 274 01c4 37050040 		li	a0,1073741824
 275 01c8 97000000 		call	timer_channel_output_config
 275      E7800000 
 276              	.LVL23:
  36:pwm.c         ****         timer_channel_output_pulse_value_config(TIMER1,TIMER_CH_0,0);
 277              		.loc 1 36 5 discriminator 1
  36:pwm.c         ****         timer_channel_output_pulse_value_config(TIMER1,TIMER_CH_0,0);
 278              		.loc 1 36 8 is_stmt 0 discriminator 1
 279 01d0 E38209EE 		beq	s3,zero,.L10
 280 01d4 55BF     		j	.L60
 281              	.L58:
  33:pwm.c         ****     if (ch&0x8) timer_channel_output_config(TIMER1,TIMER_CH_3,&timer_ocinitpara);
 282              		.loc 1 33 17 is_stmt 1 discriminator 1
 283 01d6 5000     		addi	a2,sp,4
 284 01d8 8945     		li	a1,2
GAS LISTING C:\Users\GTSAIN~1\AppData\Local\Temp\cceY9Tve.s 			page 8


 285 01da 37050040 		li	a0,1073741824
 286 01de 97000000 		call	timer_channel_output_config
 286      E7800000 
 287              	.LVL24:
  34:pwm.c         **** 
 288              		.loc 1 34 5 discriminator 1
  34:pwm.c         **** 
 289              		.loc 1 34 8 is_stmt 0 discriminator 1
 290 01e6 E30504EC 		beq	s0,zero,.L9
 291 01ea D9BF     		j	.L59
 292              	.L57:
  32:pwm.c         ****     if (ch&0x4) timer_channel_output_config(TIMER1,TIMER_CH_2,&timer_ocinitpara);
 293              		.loc 1 32 17 is_stmt 1 discriminator 1
 294 01ec 5000     		addi	a2,sp,4
 295 01ee 8545     		li	a1,1
 296 01f0 37050040 		li	a0,1073741824
 297 01f4 97000000 		call	timer_channel_output_config
 297      E7800000 
 298              	.LVL25:
  33:pwm.c         ****     if (ch&0x8) timer_channel_output_config(TIMER1,TIMER_CH_3,&timer_ocinitpara);
 299              		.loc 1 33 5 discriminator 1
  33:pwm.c         ****     if (ch&0x8) timer_channel_output_config(TIMER1,TIMER_CH_3,&timer_ocinitpara);
 300              		.loc 1 33 8 is_stmt 0 discriminator 1
 301 01fc E38804EA 		beq	s1,zero,.L8
 302 0200 D9BF     		j	.L58
 303              	.L56:
  31:pwm.c         ****     if (ch&0x2) timer_channel_output_config(TIMER1,TIMER_CH_1,&timer_ocinitpara);
 304              		.loc 1 31 17 is_stmt 1 discriminator 1
 305 0202 5000     		addi	a2,sp,4
 306 0204 8145     		li	a1,0
 307 0206 37050040 		li	a0,1073741824
 308 020a 97000000 		call	timer_channel_output_config
 308      E7800000 
 309              	.LVL26:
  32:pwm.c         ****     if (ch&0x4) timer_channel_output_config(TIMER1,TIMER_CH_2,&timer_ocinitpara);
 310              		.loc 1 32 5 discriminator 1
  32:pwm.c         ****     if (ch&0x4) timer_channel_output_config(TIMER1,TIMER_CH_2,&timer_ocinitpara);
 311              		.loc 1 32 8 is_stmt 0 discriminator 1
 312 0212 E30B09E8 		beq	s2,zero,.L7
 313 0216 D9BF     		j	.L57
 314              	.L55:
  11:pwm.c         ****     rcu_periph_clock_enable(RCU_TIMER1);
 315              		.loc 1 11 17 is_stmt 1 discriminator 1
 316 0218 37150140 		li	a0,1073811456
 317 021c A146     		li	a3,8
 318 021e 0D46     		li	a2,3
 319 0220 E145     		li	a1,24
 320 0222 13050580 		addi	a0,a0,-2048
 321 0226 97000000 		call	gpio_init
 321      E7800000 
 322              	.LVL27:
 323 022e 19BD     		j	.L5
 324              	.L54:
  10:pwm.c         ****     if (ch&0x8) gpio_init(GPIOA, GPIO_MODE_AF_PP, GPIO_OSPEED_50MHZ, GPIO_PIN_3);
 325              		.loc 1 10 17 discriminator 1
 326 0230 37150140 		li	a0,1073811456
 327 0234 9146     		li	a3,4
GAS LISTING C:\Users\GTSAIN~1\AppData\Local\Temp\cceY9Tve.s 			page 9


 328 0236 0D46     		li	a2,3
 329 0238 E145     		li	a1,24
 330 023a 13050580 		addi	a0,a0,-2048
 331 023e 97000000 		call	gpio_init
 331      E7800000 
 332              	.LVL28:
 333 0246 E5BB     		j	.L4
 334              	.L53:
   9:pwm.c         ****     if (ch&0x4) gpio_init(GPIOA, GPIO_MODE_AF_PP, GPIO_OSPEED_50MHZ, GPIO_PIN_2);
 335              		.loc 1 9 17 discriminator 1
 336 0248 37150140 		li	a0,1073811456
 337 024c 8946     		li	a3,2
 338 024e 0D46     		li	a2,3
 339 0250 E145     		li	a1,24
 340 0252 13050580 		addi	a0,a0,-2048
 341 0256 97000000 		call	gpio_init
 341      E7800000 
 342              	.LVL29:
 343 025e E1BB     		j	.L3
 344              	.L52:
   8:pwm.c         ****     if (ch&0x2) gpio_init(GPIOA, GPIO_MODE_AF_PP, GPIO_OSPEED_50MHZ, GPIO_PIN_1);
 345              		.loc 1 8 17 discriminator 1
 346 0260 37150140 		li	a0,1073811456
 347 0264 8546     		li	a3,1
 348 0266 0D46     		li	a2,3
 349 0268 E145     		li	a1,24
 350 026a 13050580 		addi	a0,a0,-2048
 351 026e 97000000 		call	gpio_init
 351      E7800000 
 352              	.LVL30:
 353 0276 65BB     		j	.L2
 354              		.cfi_endproc
 355              	.LFE2:
 357              		.section	.text.T1setPWMch2,"ax",@progbits
 358              		.align	1
 359              		.globl	T1setPWMch2
 361              	T1setPWMch2:
 362              	.LFB3:
  60:pwm.c         **** 
  61:pwm.c         **** void T1setPWMch2(int value){
 363              		.loc 1 61 28
 364              		.cfi_startproc
 365              	.LVL31:
  62:pwm.c         ****     timer_channel_output_pulse_value_config(TIMER1,TIMER_CH_0,value);
 366              		.loc 1 62 5
 367 0000 2A86     		mv	a2,a0
 368 0002 8145     		li	a1,0
 369 0004 37050040 		li	a0,1073741824
 370              	.LVL32:
 371 0008 17030000 		tail	timer_channel_output_pulse_value_config
 371      67000300 
 372              	.LVL33:
 373              		.cfi_endproc
 374              	.LFE3:
 376              		.globl	__floatsidf
 377              		.globl	__divdf3
 378              		.globl	__muldf3
GAS LISTING C:\Users\GTSAIN~1\AppData\Local\Temp\cceY9Tve.s 			page 10


 379              		.globl	__fixunsdfsi
 380              		.section	.text.T1setPWMmotorB,"ax",@progbits
 381              		.align	1
 382              		.globl	T1setPWMmotorB
 384              	T1setPWMmotorB:
 385              	.LFB4:
  63:pwm.c         **** }
  64:pwm.c         **** 
  65:pwm.c         **** void T1setPWMmotorB(int throttel){
 386              		.loc 1 65 34
 387              		.cfi_startproc
 388              	.LVL34:
  66:pwm.c         ****     if (throttel>0) {
 389              		.loc 1 66 5
  65:pwm.c         ****     if (throttel>0) {
 390              		.loc 1 65 34 is_stmt 0
 391 0000 4111     		addi	sp,sp,-16
 392              	.LCFI3:
 393              		.cfi_def_cfa_offset 16
 394 0002 06C6     		sw	ra,12(sp)
 395 0004 22C4     		sw	s0,8(sp)
 396              		.cfi_offset 1, -4
 397              		.cfi_offset 8, -8
 398              		.loc 1 66 8
 399 0006 6351A006 		ble	a0,zero,.L66
  67:pwm.c         ****        timer_channel_output_pulse_value_config(TIMER1,TIMER_CH_1,(throttel/100.0)*16000);
 400              		.loc 1 67 8 is_stmt 1
 401              		.loc 1 67 75 is_stmt 0
 402 000a 97000000 		call	__floatsidf
 402      E7800000 
 403              	.LVL35:
 404 0012 B7070000 		lui	a5,%hi(.LC0)
 405 0016 03A60700 		lw	a2,%lo(.LC0)(a5)
 406 001a 83A64700 		lw	a3,%lo(.LC0+4)(a5)
 407 001e 97000000 		call	__divdf3
 407      E7800000 
 408              	.LVL36:
 409              		.loc 1 67 82
 410 0026 B7070000 		lui	a5,%hi(.LC1)
 411 002a 03A60700 		lw	a2,%lo(.LC1)(a5)
 412 002e 83A64700 		lw	a3,%lo(.LC1+4)(a5)
 413 0032 97000000 		call	__muldf3
 413      E7800000 
 414              	.LVL37:
 415              		.loc 1 67 8
 416 003a 97000000 		call	__fixunsdfsi
 416      E7800000 
 417              	.LVL38:
 418 0042 2A86     		mv	a2,a0
 419 0044 8545     		li	a1,1
 420 0046 37050040 		li	a0,1073741824
 421 004a 97000000 		call	timer_channel_output_pulse_value_config
 421      E7800000 
 422              	.LVL39:
  68:pwm.c         ****        timer_channel_output_pulse_value_config(TIMER1,TIMER_CH_0,0);
 423              		.loc 1 68 8 is_stmt 1
  69:pwm.c         ****     } else {
GAS LISTING C:\Users\GTSAIN~1\AppData\Local\Temp\cceY9Tve.s 			page 11


  70:pwm.c         ****        timer_channel_output_pulse_value_config(TIMER1,TIMER_CH_1,0);
  71:pwm.c         ****        timer_channel_output_pulse_value_config(TIMER1,TIMER_CH_0,(-throttel/100.0)*16000);
  72:pwm.c         ****     }
  73:pwm.c         **** }
 424              		.loc 1 73 1 is_stmt 0
 425 0052 2244     		lw	s0,8(sp)
 426              		.cfi_remember_state
 427              		.cfi_restore 8
 428 0054 B240     		lw	ra,12(sp)
 429              		.cfi_restore 1
  68:pwm.c         ****        timer_channel_output_pulse_value_config(TIMER1,TIMER_CH_0,0);
 430              		.loc 1 68 8
 431 0056 0146     		li	a2,0
 432              		.loc 1 73 1
  71:pwm.c         ****     }
 433              		.loc 1 71 8
 434 0058 8145     		li	a1,0
 435 005a 37050040 		li	a0,1073741824
 436              		.loc 1 73 1
 437 005e 4101     		addi	sp,sp,16
 438              	.LCFI4:
 439              		.cfi_def_cfa_offset 0
  71:pwm.c         ****     }
 440              		.loc 1 71 8
 441 0060 17030000 		tail	timer_channel_output_pulse_value_config
 441      67000300 
 442              	.LVL40:
 443              	.L66:
 444              	.LCFI5:
 445              		.cfi_restore_state
  70:pwm.c         ****        timer_channel_output_pulse_value_config(TIMER1,TIMER_CH_0,(-throttel/100.0)*16000);
 446              		.loc 1 70 8 is_stmt 1
 447 0068 2A84     		mv	s0,a0
 448 006a 0146     		li	a2,0
 449 006c 8545     		li	a1,1
 450 006e 37050040 		li	a0,1073741824
 451              	.LVL41:
 452 0072 97000000 		call	timer_channel_output_pulse_value_config
 452      E7800000 
 453              	.LVL42:
  71:pwm.c         ****     }
 454              		.loc 1 71 8
  71:pwm.c         ****     }
 455              		.loc 1 71 76 is_stmt 0
 456 007a 33058040 		neg	a0,s0
 457 007e 97000000 		call	__floatsidf
 457      E7800000 
 458              	.LVL43:
 459 0086 B7070000 		lui	a5,%hi(.LC0)
 460 008a 03A60700 		lw	a2,%lo(.LC0)(a5)
 461 008e 83A64700 		lw	a3,%lo(.LC0+4)(a5)
 462 0092 97000000 		call	__divdf3
 462      E7800000 
 463              	.LVL44:
  71:pwm.c         ****     }
 464              		.loc 1 71 83
 465 009a B7070000 		lui	a5,%hi(.LC1)
GAS LISTING C:\Users\GTSAIN~1\AppData\Local\Temp\cceY9Tve.s 			page 12


 466 009e 03A60700 		lw	a2,%lo(.LC1)(a5)
 467 00a2 83A64700 		lw	a3,%lo(.LC1+4)(a5)
 468 00a6 97000000 		call	__muldf3
 468      E7800000 
 469              	.LVL45:
  71:pwm.c         ****     }
 470              		.loc 1 71 8
 471 00ae 97000000 		call	__fixunsdfsi
 471      E7800000 
 472              	.LVL46:
 473              		.loc 1 73 1
 474 00b6 2244     		lw	s0,8(sp)
 475              		.cfi_restore 8
 476              	.LVL47:
 477 00b8 B240     		lw	ra,12(sp)
 478              		.cfi_restore 1
  71:pwm.c         ****     }
 479              		.loc 1 71 8
 480 00ba 2A86     		mv	a2,a0
 481              		.loc 1 73 1
  71:pwm.c         ****     }
 482              		.loc 1 71 8
 483 00bc 8145     		li	a1,0
 484 00be 37050040 		li	a0,1073741824
 485              		.loc 1 73 1
 486 00c2 4101     		addi	sp,sp,16
 487              	.LCFI6:
 488              		.cfi_def_cfa_offset 0
  71:pwm.c         ****     }
 489              		.loc 1 71 8
 490 00c4 17030000 		tail	timer_channel_output_pulse_value_config
 490      67000300 
 491              	.LVL48:
 492              		.cfi_endproc
 493              	.LFE4:
 495              		.section	.rodata.T1setPWMmotorB.cst8,"aM",@progbits,8
 496              		.align	3
 497              	.LC0:
 498 0000 00000000 		.word	0
 499 0004 00005940 		.word	1079574528
 500              	.LC1:
 501 0008 00000000 		.word	0
 502 000c 0040CF40 		.word	1087324160
 503              		.text
 504              	.Letext0:
 505              		.file 2 "c:\\users\\gtsa infinity\\desktop\\toolchain-gd32v-win\\compiler\\riscv64-unknown-elf\\in
 506              		.file 3 "c:\\users\\gtsa infinity\\desktop\\toolchain-gd32v-win\\compiler\\riscv64-unknown-elf\\in
 507              		.file 4 "../../firmware/GD32VF103_standard_peripheral/Include/gd32vf103_timer.h"
 508              		.file 5 "../../firmware/GD32VF103_standard_peripheral/Include/gd32vf103_rcu.h"
 509              		.file 6 "../../firmware/GD32VF103_standard_peripheral/Include/gd32vf103_gpio.h"
 510              		.file 7 "../../firmware/GD32VF103_standard_peripheral/system_gd32vf103.h"
GAS LISTING C:\Users\GTSAIN~1\AppData\Local\Temp\cceY9Tve.s 			page 13


DEFINED SYMBOLS
                            *ABS*:0000000000000000 pwm.c
C:\Users\GTSAIN~1\AppData\Local\Temp\cceY9Tve.s:13     .text.T1powerUpInitPWM:0000000000000000 T1powerUpInitPWM
C:\Users\GTSAIN~1\AppData\Local\Temp\cceY9Tve.s:17     .text.T1powerUpInitPWM:0000000000000000 .L0 
C:\Users\GTSAIN~1\AppData\Local\Temp\cceY9Tve.s:19     .text.T1powerUpInitPWM:0000000000000000 .L0 
C:\Users\GTSAIN~1\AppData\Local\Temp\cceY9Tve.s:20     .text.T1powerUpInitPWM:0000000000000000 .L0 
C:\Users\GTSAIN~1\AppData\Local\Temp\cceY9Tve.s:21     .text.T1powerUpInitPWM:0000000000000000 .L0 
C:\Users\GTSAIN~1\AppData\Local\Temp\cceY9Tve.s:22     .text.T1powerUpInitPWM:0000000000000000 .L0 
C:\Users\GTSAIN~1\AppData\Local\Temp\cceY9Tve.s:23     .text.T1powerUpInitPWM:0000000000000000 .L0 
C:\Users\GTSAIN~1\AppData\Local\Temp\cceY9Tve.s:25     .text.T1powerUpInitPWM:0000000000000002 .L0 
C:\Users\GTSAIN~1\AppData\Local\Temp\cceY9Tve.s:27     .text.T1powerUpInitPWM:0000000000000004 .L0 
C:\Users\GTSAIN~1\AppData\Local\Temp\cceY9Tve.s:30     .text.T1powerUpInitPWM:0000000000000006 .L0 
C:\Users\GTSAIN~1\AppData\Local\Temp\cceY9Tve.s:33     .text.T1powerUpInitPWM:000000000000000a .L0 
C:\Users\GTSAIN~1\AppData\Local\Temp\cceY9Tve.s:37     .text.T1powerUpInitPWM:0000000000000012 .L0 
C:\Users\GTSAIN~1\AppData\Local\Temp\cceY9Tve.s:38     .text.T1powerUpInitPWM:0000000000000012 .L0 
C:\Users\GTSAIN~1\AppData\Local\Temp\cceY9Tve.s:39     .text.T1powerUpInitPWM:0000000000000012 .L0 
C:\Users\GTSAIN~1\AppData\Local\Temp\cceY9Tve.s:40     .text.T1powerUpInitPWM:0000000000000012 .L0 
C:\Users\GTSAIN~1\AppData\Local\Temp\cceY9Tve.s:42     .text.T1powerUpInitPWM:0000000000000012 .L0 
C:\Users\GTSAIN~1\AppData\Local\Temp\cceY9Tve.s:45     .text.T1powerUpInitPWM:000000000000001a .L0 
C:\Users\GTSAIN~1\AppData\Local\Temp\cceY9Tve.s:50     .text.T1powerUpInitPWM:000000000000002a .L0 
C:\Users\GTSAIN~1\AppData\Local\Temp\cceY9Tve.s:51     .text.T1powerUpInitPWM:000000000000002a .L0 
C:\Users\GTSAIN~1\AppData\Local\Temp\cceY9Tve.s:54     .text.T1powerUpInitPWM:000000000000002e .L0 
C:\Users\GTSAIN~1\AppData\Local\Temp\cceY9Tve.s:56     .text.T1powerUpInitPWM:0000000000000032 .L0 
C:\Users\GTSAIN~1\AppData\Local\Temp\cceY9Tve.s:59     .text.T1powerUpInitPWM:0000000000000036 .L0 
C:\Users\GTSAIN~1\AppData\Local\Temp\cceY9Tve.s:61     .text.T1powerUpInitPWM:000000000000003a .L0 
C:\Users\GTSAIN~1\AppData\Local\Temp\cceY9Tve.s:64     .text.T1powerUpInitPWM:000000000000003e .L0 
C:\Users\GTSAIN~1\AppData\Local\Temp\cceY9Tve.s:66     .text.T1powerUpInitPWM:0000000000000040 .L0 
C:\Users\GTSAIN~1\AppData\Local\Temp\cceY9Tve.s:69     .text.T1powerUpInitPWM:0000000000000044 .L0 
C:\Users\GTSAIN~1\AppData\Local\Temp\cceY9Tve.s:73     .text.T1powerUpInitPWM:0000000000000050 .L0 
C:\Users\GTSAIN~1\AppData\Local\Temp\cceY9Tve.s:77     .text.T1powerUpInitPWM:000000000000005c .L0 
C:\Users\GTSAIN~1\AppData\Local\Temp\cceY9Tve.s:81     .text.T1powerUpInitPWM:0000000000000066 .L0 
C:\Users\GTSAIN~1\AppData\Local\Temp\cceY9Tve.s:82     .text.T1powerUpInitPWM:0000000000000066 .L0 
C:\Users\GTSAIN~1\AppData\Local\Temp\cceY9Tve.s:83     .text.T1powerUpInitPWM:0000000000000066 .L0 
C:\Users\GTSAIN~1\AppData\Local\Temp\cceY9Tve.s:84     .text.T1powerUpInitPWM:0000000000000066 .L0 
C:\Users\GTSAIN~1\AppData\Local\Temp\cceY9Tve.s:87     .text.T1powerUpInitPWM:000000000000006c .L0 
C:\Users\GTSAIN~1\AppData\Local\Temp\cceY9Tve.s:90     .text.T1powerUpInitPWM:0000000000000072 .L0 
C:\Users\GTSAIN~1\AppData\Local\Temp\cceY9Tve.s:93     .text.T1powerUpInitPWM:0000000000000078 .L0 
C:\Users\GTSAIN~1\AppData\Local\Temp\cceY9Tve.s:95     .text.T1powerUpInitPWM:000000000000007a .L0 
C:\Users\GTSAIN~1\AppData\Local\Temp\cceY9Tve.s:97     .text.T1powerUpInitPWM:000000000000007e .L0 
C:\Users\GTSAIN~1\AppData\Local\Temp\cceY9Tve.s:98     .text.T1powerUpInitPWM:000000000000007e .L0 
C:\Users\GTSAIN~1\AppData\Local\Temp\cceY9Tve.s:99     .text.T1powerUpInitPWM:000000000000007e .L0 
C:\Users\GTSAIN~1\AppData\Local\Temp\cceY9Tve.s:101    .text.T1powerUpInitPWM:0000000000000082 .L0 
C:\Users\GTSAIN~1\AppData\Local\Temp\cceY9Tve.s:102    .text.T1powerUpInitPWM:0000000000000082 .L0 
C:\Users\GTSAIN~1\AppData\Local\Temp\cceY9Tve.s:104    .text.T1powerUpInitPWM:0000000000000086 .L0 
C:\Users\GTSAIN~1\AppData\Local\Temp\cceY9Tve.s:107    .text.T1powerUpInitPWM:000000000000008e .L0 
C:\Users\GTSAIN~1\AppData\Local\Temp\cceY9Tve.s:111    .text.T1powerUpInitPWM:0000000000000098 .L0 
C:\Users\GTSAIN~1\AppData\Local\Temp\cceY9Tve.s:112    .text.T1powerUpInitPWM:0000000000000098 .L0 
C:\Users\GTSAIN~1\AppData\Local\Temp\cceY9Tve.s:113    .text.T1powerUpInitPWM:0000000000000098 .L0 
C:\Users\GTSAIN~1\AppData\Local\Temp\cceY9Tve.s:114    .text.T1powerUpInitPWM:0000000000000098 .L0 
C:\Users\GTSAIN~1\AppData\Local\Temp\cceY9Tve.s:115    .text.T1powerUpInitPWM:0000000000000098 .L0 
C:\Users\GTSAIN~1\AppData\Local\Temp\cceY9Tve.s:116    .text.T1powerUpInitPWM:0000000000000098 .L0 
C:\Users\GTSAIN~1\AppData\Local\Temp\cceY9Tve.s:117    .text.T1powerUpInitPWM:0000000000000098 .L0 
C:\Users\GTSAIN~1\AppData\Local\Temp\cceY9Tve.s:120    .text.T1powerUpInitPWM:000000000000009c .L0 
C:\Users\GTSAIN~1\AppData\Local\Temp\cceY9Tve.s:122    .text.T1powerUpInitPWM:000000000000009e .L0 
C:\Users\GTSAIN~1\AppData\Local\Temp\cceY9Tve.s:124    .text.T1powerUpInitPWM:00000000000000a0 .L0 
C:\Users\GTSAIN~1\AppData\Local\Temp\cceY9Tve.s:125    .text.T1powerUpInitPWM:00000000000000a0 .L0 
C:\Users\GTSAIN~1\AppData\Local\Temp\cceY9Tve.s:127    .text.T1powerUpInitPWM:00000000000000a4 .L0 
GAS LISTING C:\Users\GTSAIN~1\AppData\Local\Temp\cceY9Tve.s 			page 14


C:\Users\GTSAIN~1\AppData\Local\Temp\cceY9Tve.s:128    .text.T1powerUpInitPWM:00000000000000a4 .L0 
C:\Users\GTSAIN~1\AppData\Local\Temp\cceY9Tve.s:131    .text.T1powerUpInitPWM:00000000000000a8 .L0 
C:\Users\GTSAIN~1\AppData\Local\Temp\cceY9Tve.s:132    .text.T1powerUpInitPWM:00000000000000a8 .L0 
C:\Users\GTSAIN~1\AppData\Local\Temp\cceY9Tve.s:135    .text.T1powerUpInitPWM:00000000000000ac .L0 
C:\Users\GTSAIN~1\AppData\Local\Temp\cceY9Tve.s:136    .text.T1powerUpInitPWM:00000000000000ac .L0 
C:\Users\GTSAIN~1\AppData\Local\Temp\cceY9Tve.s:139    .text.T1powerUpInitPWM:00000000000000b0 .L0 
C:\Users\GTSAIN~1\AppData\Local\Temp\cceY9Tve.s:140    .text.T1powerUpInitPWM:00000000000000b0 .L0 
C:\Users\GTSAIN~1\AppData\Local\Temp\cceY9Tve.s:143    .text.T1powerUpInitPWM:00000000000000b4 .L0 
C:\Users\GTSAIN~1\AppData\Local\Temp\cceY9Tve.s:144    .text.T1powerUpInitPWM:00000000000000b4 .L0 
C:\Users\GTSAIN~1\AppData\Local\Temp\cceY9Tve.s:147    .text.T1powerUpInitPWM:00000000000000b8 .L0 
C:\Users\GTSAIN~1\AppData\Local\Temp\cceY9Tve.s:148    .text.T1powerUpInitPWM:00000000000000b8 .L0 
C:\Users\GTSAIN~1\AppData\Local\Temp\cceY9Tve.s:151    .text.T1powerUpInitPWM:00000000000000ba .L0 
C:\Users\GTSAIN~1\AppData\Local\Temp\cceY9Tve.s:152    .text.T1powerUpInitPWM:00000000000000ba .L0 
C:\Users\GTSAIN~1\AppData\Local\Temp\cceY9Tve.s:155    .text.T1powerUpInitPWM:00000000000000bc .L0 
C:\Users\GTSAIN~1\AppData\Local\Temp\cceY9Tve.s:159    .text.T1powerUpInitPWM:00000000000000c8 .L0 
C:\Users\GTSAIN~1\AppData\Local\Temp\cceY9Tve.s:163    .text.T1powerUpInitPWM:00000000000000d4 .L0 
C:\Users\GTSAIN~1\AppData\Local\Temp\cceY9Tve.s:164    .text.T1powerUpInitPWM:00000000000000d6 .L0 
C:\Users\GTSAIN~1\AppData\Local\Temp\cceY9Tve.s:165    .text.T1powerUpInitPWM:00000000000000d6 .L0 
C:\Users\GTSAIN~1\AppData\Local\Temp\cceY9Tve.s:167    .text.T1powerUpInitPWM:00000000000000d8 .L0 
C:\Users\GTSAIN~1\AppData\Local\Temp\cceY9Tve.s:169    .text.T1powerUpInitPWM:00000000000000da .L0 
C:\Users\GTSAIN~1\AppData\Local\Temp\cceY9Tve.s:171    .text.T1powerUpInitPWM:00000000000000dc .L0 
C:\Users\GTSAIN~1\AppData\Local\Temp\cceY9Tve.s:173    .text.T1powerUpInitPWM:00000000000000de .L0 
C:\Users\GTSAIN~1\AppData\Local\Temp\cceY9Tve.s:176    .text.T1powerUpInitPWM:00000000000000e0 .L0 
C:\Users\GTSAIN~1\AppData\Local\Temp\cceY9Tve.s:180    .text.T1powerUpInitPWM:00000000000000e2 .L0 
C:\Users\GTSAIN~1\AppData\Local\Temp\cceY9Tve.s:182    .text.T1powerUpInitPWM:00000000000000e2 .L0 
C:\Users\GTSAIN~1\AppData\Local\Temp\cceY9Tve.s:189    .text.T1powerUpInitPWM:00000000000000f6 .L0 
C:\Users\GTSAIN~1\AppData\Local\Temp\cceY9Tve.s:195    .text.T1powerUpInitPWM:0000000000000108 .L0 
C:\Users\GTSAIN~1\AppData\Local\Temp\cceY9Tve.s:201    .text.T1powerUpInitPWM:0000000000000118 .L0 
C:\Users\GTSAIN~1\AppData\Local\Temp\cceY9Tve.s:202    .text.T1powerUpInitPWM:0000000000000118 .L0 
C:\Users\GTSAIN~1\AppData\Local\Temp\cceY9Tve.s:205    .text.T1powerUpInitPWM:000000000000011a .L0 
C:\Users\GTSAIN~1\AppData\Local\Temp\cceY9Tve.s:212    .text.T1powerUpInitPWM:000000000000012e .L0 
C:\Users\GTSAIN~1\AppData\Local\Temp\cceY9Tve.s:218    .text.T1powerUpInitPWM:0000000000000140 .L0 
C:\Users\GTSAIN~1\AppData\Local\Temp\cceY9Tve.s:226    .text.T1powerUpInitPWM:0000000000000152 .L0 
C:\Users\GTSAIN~1\AppData\Local\Temp\cceY9Tve.s:232    .text.T1powerUpInitPWM:0000000000000162 .L0 
C:\Users\GTSAIN~1\AppData\Local\Temp\cceY9Tve.s:238    .text.T1powerUpInitPWM:0000000000000174 .L0 
C:\Users\GTSAIN~1\AppData\Local\Temp\cceY9Tve.s:244    .text.T1powerUpInitPWM:0000000000000184 .L0 
C:\Users\GTSAIN~1\AppData\Local\Temp\cceY9Tve.s:245    .text.T1powerUpInitPWM:0000000000000184 .L0 
C:\Users\GTSAIN~1\AppData\Local\Temp\cceY9Tve.s:249    .text.T1powerUpInitPWM:0000000000000188 .L0 
C:\Users\GTSAIN~1\AppData\Local\Temp\cceY9Tve.s:255    .text.T1powerUpInitPWM:0000000000000198 .L0 
C:\Users\GTSAIN~1\AppData\Local\Temp\cceY9Tve.s:261    .text.T1powerUpInitPWM:00000000000001aa .L0 
C:\Users\GTSAIN~1\AppData\Local\Temp\cceY9Tve.s:267    .text.T1powerUpInitPWM:00000000000001ba .L0 
C:\Users\GTSAIN~1\AppData\Local\Temp\cceY9Tve.s:268    .text.T1powerUpInitPWM:00000000000001ba .L0 
C:\Users\GTSAIN~1\AppData\Local\Temp\cceY9Tve.s:272    .text.T1powerUpInitPWM:00000000000001c0 .L0 
C:\Users\GTSAIN~1\AppData\Local\Temp\cceY9Tve.s:278    .text.T1powerUpInitPWM:00000000000001d0 .L0 
C:\Users\GTSAIN~1\AppData\Local\Temp\cceY9Tve.s:279    .text.T1powerUpInitPWM:00000000000001d0 .L0 
C:\Users\GTSAIN~1\AppData\Local\Temp\cceY9Tve.s:283    .text.T1powerUpInitPWM:00000000000001d6 .L0 
C:\Users\GTSAIN~1\AppData\Local\Temp\cceY9Tve.s:289    .text.T1powerUpInitPWM:00000000000001e6 .L0 
C:\Users\GTSAIN~1\AppData\Local\Temp\cceY9Tve.s:290    .text.T1powerUpInitPWM:00000000000001e6 .L0 
C:\Users\GTSAIN~1\AppData\Local\Temp\cceY9Tve.s:294    .text.T1powerUpInitPWM:00000000000001ec .L0 
C:\Users\GTSAIN~1\AppData\Local\Temp\cceY9Tve.s:300    .text.T1powerUpInitPWM:00000000000001fc .L0 
C:\Users\GTSAIN~1\AppData\Local\Temp\cceY9Tve.s:301    .text.T1powerUpInitPWM:00000000000001fc .L0 
C:\Users\GTSAIN~1\AppData\Local\Temp\cceY9Tve.s:305    .text.T1powerUpInitPWM:0000000000000202 .L0 
C:\Users\GTSAIN~1\AppData\Local\Temp\cceY9Tve.s:311    .text.T1powerUpInitPWM:0000000000000212 .L0 
C:\Users\GTSAIN~1\AppData\Local\Temp\cceY9Tve.s:312    .text.T1powerUpInitPWM:0000000000000212 .L0 
C:\Users\GTSAIN~1\AppData\Local\Temp\cceY9Tve.s:316    .text.T1powerUpInitPWM:0000000000000218 .L0 
C:\Users\GTSAIN~1\AppData\Local\Temp\cceY9Tve.s:326    .text.T1powerUpInitPWM:0000000000000230 .L0 
C:\Users\GTSAIN~1\AppData\Local\Temp\cceY9Tve.s:336    .text.T1powerUpInitPWM:0000000000000248 .L0 
GAS LISTING C:\Users\GTSAIN~1\AppData\Local\Temp\cceY9Tve.s 			page 15


C:\Users\GTSAIN~1\AppData\Local\Temp\cceY9Tve.s:346    .text.T1powerUpInitPWM:0000000000000260 .L0 
C:\Users\GTSAIN~1\AppData\Local\Temp\cceY9Tve.s:354    .text.T1powerUpInitPWM:0000000000000278 .L0 
C:\Users\GTSAIN~1\AppData\Local\Temp\cceY9Tve.s:361    .text.T1setPWMch2:0000000000000000 T1setPWMch2
C:\Users\GTSAIN~1\AppData\Local\Temp\cceY9Tve.s:364    .text.T1setPWMch2:0000000000000000 .L0 
C:\Users\GTSAIN~1\AppData\Local\Temp\cceY9Tve.s:366    .text.T1setPWMch2:0000000000000000 .L0 
C:\Users\GTSAIN~1\AppData\Local\Temp\cceY9Tve.s:367    .text.T1setPWMch2:0000000000000000 .L0 
C:\Users\GTSAIN~1\AppData\Local\Temp\cceY9Tve.s:373    .text.T1setPWMch2:0000000000000010 .L0 
C:\Users\GTSAIN~1\AppData\Local\Temp\cceY9Tve.s:384    .text.T1setPWMmotorB:0000000000000000 T1setPWMmotorB
C:\Users\GTSAIN~1\AppData\Local\Temp\cceY9Tve.s:387    .text.T1setPWMmotorB:0000000000000000 .L0 
C:\Users\GTSAIN~1\AppData\Local\Temp\cceY9Tve.s:389    .text.T1setPWMmotorB:0000000000000000 .L0 
C:\Users\GTSAIN~1\AppData\Local\Temp\cceY9Tve.s:390    .text.T1setPWMmotorB:0000000000000000 .L0 
C:\Users\GTSAIN~1\AppData\Local\Temp\cceY9Tve.s:391    .text.T1setPWMmotorB:0000000000000000 .L0 
C:\Users\GTSAIN~1\AppData\Local\Temp\cceY9Tve.s:393    .text.T1setPWMmotorB:0000000000000002 .L0 
C:\Users\GTSAIN~1\AppData\Local\Temp\cceY9Tve.s:396    .text.T1setPWMmotorB:0000000000000006 .L0 
C:\Users\GTSAIN~1\AppData\Local\Temp\cceY9Tve.s:397    .text.T1setPWMmotorB:0000000000000006 .L0 
C:\Users\GTSAIN~1\AppData\Local\Temp\cceY9Tve.s:399    .text.T1setPWMmotorB:0000000000000006 .L0 
C:\Users\GTSAIN~1\AppData\Local\Temp\cceY9Tve.s:401    .text.T1setPWMmotorB:000000000000000a .L0 
C:\Users\GTSAIN~1\AppData\Local\Temp\cceY9Tve.s:402    .text.T1setPWMmotorB:000000000000000a .L0 
C:\Users\GTSAIN~1\AppData\Local\Temp\cceY9Tve.s:410    .text.T1setPWMmotorB:0000000000000026 .L0 
C:\Users\GTSAIN~1\AppData\Local\Temp\cceY9Tve.s:416    .text.T1setPWMmotorB:000000000000003a .L0 
C:\Users\GTSAIN~1\AppData\Local\Temp\cceY9Tve.s:424    .text.T1setPWMmotorB:0000000000000052 .L0 
C:\Users\GTSAIN~1\AppData\Local\Temp\cceY9Tve.s:425    .text.T1setPWMmotorB:0000000000000052 .L0 
C:\Users\GTSAIN~1\AppData\Local\Temp\cceY9Tve.s:426    .text.T1setPWMmotorB:0000000000000054 .L0 
C:\Users\GTSAIN~1\AppData\Local\Temp\cceY9Tve.s:427    .text.T1setPWMmotorB:0000000000000054 .L0 
C:\Users\GTSAIN~1\AppData\Local\Temp\cceY9Tve.s:429    .text.T1setPWMmotorB:0000000000000056 .L0 
C:\Users\GTSAIN~1\AppData\Local\Temp\cceY9Tve.s:431    .text.T1setPWMmotorB:0000000000000056 .L0 
C:\Users\GTSAIN~1\AppData\Local\Temp\cceY9Tve.s:433    .text.T1setPWMmotorB:0000000000000058 .L0 
C:\Users\GTSAIN~1\AppData\Local\Temp\cceY9Tve.s:434    .text.T1setPWMmotorB:0000000000000058 .L0 
C:\Users\GTSAIN~1\AppData\Local\Temp\cceY9Tve.s:437    .text.T1setPWMmotorB:000000000000005e .L0 
C:\Users\GTSAIN~1\AppData\Local\Temp\cceY9Tve.s:439    .text.T1setPWMmotorB:0000000000000060 .L0 
C:\Users\GTSAIN~1\AppData\Local\Temp\cceY9Tve.s:441    .text.T1setPWMmotorB:0000000000000060 .L0 
C:\Users\GTSAIN~1\AppData\Local\Temp\cceY9Tve.s:445    .text.T1setPWMmotorB:0000000000000068 .L0 
C:\Users\GTSAIN~1\AppData\Local\Temp\cceY9Tve.s:447    .text.T1setPWMmotorB:0000000000000068 .L0 
C:\Users\GTSAIN~1\AppData\Local\Temp\cceY9Tve.s:455    .text.T1setPWMmotorB:000000000000007a .L0 
C:\Users\GTSAIN~1\AppData\Local\Temp\cceY9Tve.s:456    .text.T1setPWMmotorB:000000000000007a .L0 
C:\Users\GTSAIN~1\AppData\Local\Temp\cceY9Tve.s:465    .text.T1setPWMmotorB:000000000000009a .L0 
C:\Users\GTSAIN~1\AppData\Local\Temp\cceY9Tve.s:471    .text.T1setPWMmotorB:00000000000000ae .L0 
C:\Users\GTSAIN~1\AppData\Local\Temp\cceY9Tve.s:474    .text.T1setPWMmotorB:00000000000000b6 .L0 
C:\Users\GTSAIN~1\AppData\Local\Temp\cceY9Tve.s:475    .text.T1setPWMmotorB:00000000000000b8 .L0 
C:\Users\GTSAIN~1\AppData\Local\Temp\cceY9Tve.s:478    .text.T1setPWMmotorB:00000000000000ba .L0 
C:\Users\GTSAIN~1\AppData\Local\Temp\cceY9Tve.s:480    .text.T1setPWMmotorB:00000000000000ba .L0 
C:\Users\GTSAIN~1\AppData\Local\Temp\cceY9Tve.s:482    .text.T1setPWMmotorB:00000000000000bc .L0 
C:\Users\GTSAIN~1\AppData\Local\Temp\cceY9Tve.s:483    .text.T1setPWMmotorB:00000000000000bc .L0 
C:\Users\GTSAIN~1\AppData\Local\Temp\cceY9Tve.s:486    .text.T1setPWMmotorB:00000000000000c2 .L0 
C:\Users\GTSAIN~1\AppData\Local\Temp\cceY9Tve.s:488    .text.T1setPWMmotorB:00000000000000c4 .L0 
C:\Users\GTSAIN~1\AppData\Local\Temp\cceY9Tve.s:490    .text.T1setPWMmotorB:00000000000000c4 .L0 
C:\Users\GTSAIN~1\AppData\Local\Temp\cceY9Tve.s:492    .text.T1setPWMmotorB:00000000000000cc .L0 
C:\Users\GTSAIN~1\AppData\Local\Temp\cceY9Tve.s:357    .text.T1powerUpInitPWM:0000000000000278 .L0 
C:\Users\GTSAIN~1\AppData\Local\Temp\cceY9Tve.s:380    .text.T1setPWMch2:0000000000000010 .L0 
C:\Users\GTSAIN~1\AppData\Local\Temp\cceY9Tve.s:495    .text.T1setPWMmotorB:00000000000000cc .L0 
                     .debug_frame:0000000000000000 .L0 
C:\Users\GTSAIN~1\AppData\Local\Temp\cceY9Tve.s:344    .text.T1powerUpInitPWM:0000000000000260 .L52
C:\Users\GTSAIN~1\AppData\Local\Temp\cceY9Tve.s:334    .text.T1powerUpInitPWM:0000000000000248 .L53
C:\Users\GTSAIN~1\AppData\Local\Temp\cceY9Tve.s:324    .text.T1powerUpInitPWM:0000000000000230 .L54
C:\Users\GTSAIN~1\AppData\Local\Temp\cceY9Tve.s:314    .text.T1powerUpInitPWM:0000000000000218 .L55
C:\Users\GTSAIN~1\AppData\Local\Temp\cceY9Tve.s:303    .text.T1powerUpInitPWM:0000000000000202 .L56
C:\Users\GTSAIN~1\AppData\Local\Temp\cceY9Tve.s:292    .text.T1powerUpInitPWM:00000000000001ec .L57
GAS LISTING C:\Users\GTSAIN~1\AppData\Local\Temp\cceY9Tve.s 			page 16


C:\Users\GTSAIN~1\AppData\Local\Temp\cceY9Tve.s:281    .text.T1powerUpInitPWM:00000000000001d6 .L58
C:\Users\GTSAIN~1\AppData\Local\Temp\cceY9Tve.s:270    .text.T1powerUpInitPWM:00000000000001c0 .L59
C:\Users\GTSAIN~1\AppData\Local\Temp\cceY9Tve.s:247    .text.T1powerUpInitPWM:0000000000000188 .L60
C:\Users\GTSAIN~1\AppData\Local\Temp\cceY9Tve.s:224    .text.T1powerUpInitPWM:0000000000000152 .L61
C:\Users\GTSAIN~1\AppData\Local\Temp\cceY9Tve.s:178    .text.T1powerUpInitPWM:00000000000000e2 .L62
C:\Users\GTSAIN~1\AppData\Local\Temp\cceY9Tve.s:203    .text.T1powerUpInitPWM:000000000000011a .L63
C:\Users\GTSAIN~1\AppData\Local\Temp\cceY9Tve.s:153    .text.T1powerUpInitPWM:00000000000000bc .L13
C:\Users\GTSAIN~1\AppData\Local\Temp\cceY9Tve.s:149    .text.T1powerUpInitPWM:00000000000000ba .L12
C:\Users\GTSAIN~1\AppData\Local\Temp\cceY9Tve.s:145    .text.T1powerUpInitPWM:00000000000000b8 .L11
C:\Users\GTSAIN~1\AppData\Local\Temp\cceY9Tve.s:141    .text.T1powerUpInitPWM:00000000000000b4 .L10
C:\Users\GTSAIN~1\AppData\Local\Temp\cceY9Tve.s:137    .text.T1powerUpInitPWM:00000000000000b0 .L9
C:\Users\GTSAIN~1\AppData\Local\Temp\cceY9Tve.s:133    .text.T1powerUpInitPWM:00000000000000ac .L8
C:\Users\GTSAIN~1\AppData\Local\Temp\cceY9Tve.s:129    .text.T1powerUpInitPWM:00000000000000a8 .L7
C:\Users\GTSAIN~1\AppData\Local\Temp\cceY9Tve.s:67     .text.T1powerUpInitPWM:0000000000000044 .L5
C:\Users\GTSAIN~1\AppData\Local\Temp\cceY9Tve.s:62     .text.T1powerUpInitPWM:000000000000003e .L4
C:\Users\GTSAIN~1\AppData\Local\Temp\cceY9Tve.s:57     .text.T1powerUpInitPWM:0000000000000036 .L3
C:\Users\GTSAIN~1\AppData\Local\Temp\cceY9Tve.s:52     .text.T1powerUpInitPWM:000000000000002e .L2
C:\Users\GTSAIN~1\AppData\Local\Temp\cceY9Tve.s:497    .rodata.T1setPWMmotorB.cst8:0000000000000000 .LC0
C:\Users\GTSAIN~1\AppData\Local\Temp\cceY9Tve.s:500    .rodata.T1setPWMmotorB.cst8:0000000000000008 .LC1
C:\Users\GTSAIN~1\AppData\Local\Temp\cceY9Tve.s:443    .text.T1setPWMmotorB:0000000000000068 .L66
C:\Users\GTSAIN~1\AppData\Local\Temp\cceY9Tve.s:1723   .debug_abbrev:0000000000000000 .Ldebug_abbrev0
C:\Users\GTSAIN~1\AppData\Local\Temp\cceY9Tve.s:2356   .debug_str:0000000000000281 .LASF86
C:\Users\GTSAIN~1\AppData\Local\Temp\cceY9Tve.s:2286   .debug_str:00000000000000c5 .LASF87
C:\Users\GTSAIN~1\AppData\Local\Temp\cceY9Tve.s:2364   .debug_str:000000000000031a .LASF88
C:\Users\GTSAIN~1\AppData\Local\Temp\cceY9Tve.s:2244   .debug_ranges:0000000000000000 .Ldebug_ranges0
C:\Users\GTSAIN~1\AppData\Local\Temp\cceY9Tve.s:2254   .debug_line:0000000000000000 .Ldebug_line0
C:\Users\GTSAIN~1\AppData\Local\Temp\cceY9Tve.s:2360   .debug_str:0000000000000304 .LASF0
C:\Users\GTSAIN~1\AppData\Local\Temp\cceY9Tve.s:2352   .debug_str:000000000000025e .LASF1
C:\Users\GTSAIN~1\AppData\Local\Temp\cceY9Tve.s:2434   .debug_str:0000000000000545 .LASF4
C:\Users\GTSAIN~1\AppData\Local\Temp\cceY9Tve.s:2342   .debug_str:000000000000021e .LASF2
C:\Users\GTSAIN~1\AppData\Local\Temp\cceY9Tve.s:2320   .debug_str:0000000000000170 .LASF3
C:\Users\GTSAIN~1\AppData\Local\Temp\cceY9Tve.s:2276   .debug_str:0000000000000069 .LASF5
C:\Users\GTSAIN~1\AppData\Local\Temp\cceY9Tve.s:2372   .debug_str:0000000000000388 .LASF6
C:\Users\GTSAIN~1\AppData\Local\Temp\cceY9Tve.s:2308   .debug_str:0000000000000139 .LASF7
C:\Users\GTSAIN~1\AppData\Local\Temp\cceY9Tve.s:2272   .debug_str:0000000000000056 .LASF8
C:\Users\GTSAIN~1\AppData\Local\Temp\cceY9Tve.s:2392   .debug_str:0000000000000418 .LASF9
C:\Users\GTSAIN~1\AppData\Local\Temp\cceY9Tve.s:2270   .debug_str:0000000000000048 .LASF10
C:\Users\GTSAIN~1\AppData\Local\Temp\cceY9Tve.s:2354   .debug_str:000000000000026a .LASF11
C:\Users\GTSAIN~1\AppData\Local\Temp\cceY9Tve.s:2290   .debug_str:00000000000000da .LASF12
C:\Users\GTSAIN~1\AppData\Local\Temp\cceY9Tve.s:2362   .debug_str:0000000000000311 .LASF13
C:\Users\GTSAIN~1\AppData\Local\Temp\cceY9Tve.s:2358   .debug_str:00000000000002fb .LASF14
C:\Users\GTSAIN~1\AppData\Local\Temp\cceY9Tve.s:2386   .debug_str:00000000000003f8 .LASF89
C:\Users\GTSAIN~1\AppData\Local\Temp\cceY9Tve.s:2292   .debug_str:00000000000000e2 .LASF15
C:\Users\GTSAIN~1\AppData\Local\Temp\cceY9Tve.s:2388   .debug_str:0000000000000408 .LASF16
C:\Users\GTSAIN~1\AppData\Local\Temp\cceY9Tve.s:2428   .debug_str:0000000000000514 .LASF17
C:\Users\GTSAIN~1\AppData\Local\Temp\cceY9Tve.s:2424   .debug_str:00000000000004ff .LASF18
C:\Users\GTSAIN~1\AppData\Local\Temp\cceY9Tve.s:2406   .debug_str:000000000000046f .LASF19
C:\Users\GTSAIN~1\AppData\Local\Temp\cceY9Tve.s:2326   .debug_str:00000000000001ad .LASF20
C:\Users\GTSAIN~1\AppData\Local\Temp\cceY9Tve.s:2328   .debug_str:00000000000001b8 .LASF21
C:\Users\GTSAIN~1\AppData\Local\Temp\cceY9Tve.s:2330   .debug_str:00000000000001c3 .LASF22
C:\Users\GTSAIN~1\AppData\Local\Temp\cceY9Tve.s:2332   .debug_str:00000000000001ce .LASF23
C:\Users\GTSAIN~1\AppData\Local\Temp\cceY9Tve.s:2334   .debug_str:00000000000001d9 .LASF24
C:\Users\GTSAIN~1\AppData\Local\Temp\cceY9Tve.s:2336   .debug_str:00000000000001e4 .LASF25
C:\Users\GTSAIN~1\AppData\Local\Temp\cceY9Tve.s:2302   .debug_str:0000000000000115 .LASF26
C:\Users\GTSAIN~1\AppData\Local\Temp\cceY9Tve.s:2312   .debug_str:000000000000014b .LASF27
C:\Users\GTSAIN~1\AppData\Local\Temp\cceY9Tve.s:2314   .debug_str:0000000000000154 .LASF28
C:\Users\GTSAIN~1\AppData\Local\Temp\cceY9Tve.s:2402   .debug_str:0000000000000459 .LASF29
GAS LISTING C:\Users\GTSAIN~1\AppData\Local\Temp\cceY9Tve.s 			page 17


C:\Users\GTSAIN~1\AppData\Local\Temp\cceY9Tve.s:2404   .debug_str:0000000000000464 .LASF30
C:\Users\GTSAIN~1\AppData\Local\Temp\cceY9Tve.s:2408   .debug_str:0000000000000479 .LASF31
C:\Users\GTSAIN~1\AppData\Local\Temp\cceY9Tve.s:2410   .debug_str:0000000000000483 .LASF32
C:\Users\GTSAIN~1\AppData\Local\Temp\cceY9Tve.s:2378   .debug_str:00000000000003cc .LASF33
C:\Users\GTSAIN~1\AppData\Local\Temp\cceY9Tve.s:2380   .debug_str:00000000000003d5 .LASF34
C:\Users\GTSAIN~1\AppData\Local\Temp\cceY9Tve.s:2298   .debug_str:0000000000000103 .LASF35
C:\Users\GTSAIN~1\AppData\Local\Temp\cceY9Tve.s:2300   .debug_str:000000000000010c .LASF36
C:\Users\GTSAIN~1\AppData\Local\Temp\cceY9Tve.s:2350   .debug_str:0000000000000255 .LASF37
C:\Users\GTSAIN~1\AppData\Local\Temp\cceY9Tve.s:2348   .debug_str:000000000000024d .LASF38
C:\Users\GTSAIN~1\AppData\Local\Temp\cceY9Tve.s:2430   .debug_str:000000000000051c .LASF39
C:\Users\GTSAIN~1\AppData\Local\Temp\cceY9Tve.s:2274   .debug_str:0000000000000061 .LASF40
C:\Users\GTSAIN~1\AppData\Local\Temp\cceY9Tve.s:2390   .debug_str:0000000000000411 .LASF41
C:\Users\GTSAIN~1\AppData\Local\Temp\cceY9Tve.s:2258   .debug_str:000000000000000d .LASF42
C:\Users\GTSAIN~1\AppData\Local\Temp\cceY9Tve.s:2260   .debug_str:0000000000000017 .LASF43
C:\Users\GTSAIN~1\AppData\Local\Temp\cceY9Tve.s:2262   .debug_str:0000000000000021 .LASF44
C:\Users\GTSAIN~1\AppData\Local\Temp\cceY9Tve.s:2264   .debug_str:000000000000002b .LASF45
C:\Users\GTSAIN~1\AppData\Local\Temp\cceY9Tve.s:2266   .debug_str:0000000000000035 .LASF46
C:\Users\GTSAIN~1\AppData\Local\Temp\cceY9Tve.s:2346   .debug_str:0000000000000244 .LASF47
C:\Users\GTSAIN~1\AppData\Local\Temp\cceY9Tve.s:2384   .debug_str:00000000000003ef .LASF48
C:\Users\GTSAIN~1\AppData\Local\Temp\cceY9Tve.s:2324   .debug_str:00000000000001a2 .LASF49
C:\Users\GTSAIN~1\AppData\Local\Temp\cceY9Tve.s:2310   .debug_str:0000000000000142 .LASF50
C:\Users\GTSAIN~1\AppData\Local\Temp\cceY9Tve.s:2400   .debug_str:000000000000044e .LASF51
C:\Users\GTSAIN~1\AppData\Local\Temp\cceY9Tve.s:2368   .debug_str:000000000000036d .LASF52
C:\Users\GTSAIN~1\AppData\Local\Temp\cceY9Tve.s:2316   .debug_str:000000000000015d .LASF53
C:\Users\GTSAIN~1\AppData\Local\Temp\cceY9Tve.s:2382   .debug_str:00000000000003de .LASF54
C:\Users\GTSAIN~1\AppData\Local\Temp\cceY9Tve.s:2318   .debug_str:0000000000000169 .LASF55
C:\Users\GTSAIN~1\AppData\Local\Temp\cceY9Tve.s:2282   .debug_str:00000000000000b1 .LASF56
C:\Users\GTSAIN~1\AppData\Local\Temp\cceY9Tve.s:2412   .debug_str:000000000000048d .LASF57
C:\Users\GTSAIN~1\AppData\Local\Temp\cceY9Tve.s:2280   .debug_str:000000000000009a .LASF58
C:\Users\GTSAIN~1\AppData\Local\Temp\cceY9Tve.s:2296   .debug_str:00000000000000f7 .LASF59
C:\Users\GTSAIN~1\AppData\Local\Temp\cceY9Tve.s:2398   .debug_str:0000000000000441 .LASF60
C:\Users\GTSAIN~1\AppData\Local\Temp\cceY9Tve.s:2416   .debug_str:00000000000004bf .LASF61
C:\Users\GTSAIN~1\AppData\Local\Temp\cceY9Tve.s:2426   .debug_str:0000000000000508 .LASF62
C:\Users\GTSAIN~1\AppData\Local\Temp\cceY9Tve.s:2294   .debug_str:00000000000000eb .LASF63
C:\Users\GTSAIN~1\AppData\Local\Temp\cceY9Tve.s:2394   .debug_str:000000000000042a .LASF64
C:\Users\GTSAIN~1\AppData\Local\Temp\cceY9Tve.s:2376   .debug_str:00000000000003b2 .LASF65
C:\Users\GTSAIN~1\AppData\Local\Temp\cceY9Tve.s:2338   .debug_str:00000000000001ef .LASF66
C:\Users\GTSAIN~1\AppData\Local\Temp\cceY9Tve.s:2304   .debug_str:000000000000011f .LASF67
C:\Users\GTSAIN~1\AppData\Local\Temp\cceY9Tve.s:385    .text.T1setPWMmotorB:0000000000000000 .LFB4
C:\Users\GTSAIN~1\AppData\Local\Temp\cceY9Tve.s:493    .text.T1setPWMmotorB:00000000000000cc .LFE4
C:\Users\GTSAIN~1\AppData\Local\Temp\cceY9Tve.s:2115   .debug_loc:0000000000000000 .LLST3
C:\Users\GTSAIN~1\AppData\Local\Temp\cceY9Tve.s:2268   .debug_str:000000000000003f .LASF69
C:\Users\GTSAIN~1\AppData\Local\Temp\cceY9Tve.s:2143   .debug_loc:0000000000000044 .LLST4
C:\Users\GTSAIN~1\AppData\Local\Temp\cceY9Tve.s:422    .text.T1setPWMmotorB:0000000000000052 .LVL39
C:\Users\GTSAIN~1\AppData\Local\Temp\cceY9Tve.s:442    .text.T1setPWMmotorB:0000000000000068 .LVL40
C:\Users\GTSAIN~1\AppData\Local\Temp\cceY9Tve.s:453    .text.T1setPWMmotorB:000000000000007a .LVL42
C:\Users\GTSAIN~1\AppData\Local\Temp\cceY9Tve.s:491    .text.T1setPWMmotorB:00000000000000cc .LVL48
C:\Users\GTSAIN~1\AppData\Local\Temp\cceY9Tve.s:2420   .debug_str:00000000000004e6 .LASF68
C:\Users\GTSAIN~1\AppData\Local\Temp\cceY9Tve.s:362    .text.T1setPWMch2:0000000000000000 .LFB3
C:\Users\GTSAIN~1\AppData\Local\Temp\cceY9Tve.s:374    .text.T1setPWMch2:0000000000000010 .LFE3
C:\Users\GTSAIN~1\AppData\Local\Temp\cceY9Tve.s:2284   .debug_str:00000000000000bf .LASF70
C:\Users\GTSAIN~1\AppData\Local\Temp\cceY9Tve.s:2172   .debug_loc:0000000000000089 .LLST2
C:\Users\GTSAIN~1\AppData\Local\Temp\cceY9Tve.s:372    .text.T1setPWMch2:0000000000000010 .LVL33
C:\Users\GTSAIN~1\AppData\Local\Temp\cceY9Tve.s:2370   .debug_str:0000000000000377 .LASF71
C:\Users\GTSAIN~1\AppData\Local\Temp\cceY9Tve.s:14     .text.T1powerUpInitPWM:0000000000000000 .LFB2
C:\Users\GTSAIN~1\AppData\Local\Temp\cceY9Tve.s:355    .text.T1powerUpInitPWM:0000000000000278 .LFE2
C:\Users\GTSAIN~1\AppData\Local\Temp\cceY9Tve.s:2190   .debug_loc:00000000000000b5 .LLST0
GAS LISTING C:\Users\GTSAIN~1\AppData\Local\Temp\cceY9Tve.s 			page 18


C:\Users\GTSAIN~1\AppData\Local\Temp\cceY9Tve.s:2213   .debug_loc:00000000000000ef .LLST1
C:\Users\GTSAIN~1\AppData\Local\Temp\cceY9Tve.s:2366   .debug_str:000000000000035c .LASF72
C:\Users\GTSAIN~1\AppData\Local\Temp\cceY9Tve.s:2288   .debug_str:00000000000000cb .LASF73
C:\Users\GTSAIN~1\AppData\Local\Temp\cceY9Tve.s:43     .text.T1powerUpInitPWM:000000000000001a .LVL2
C:\Users\GTSAIN~1\AppData\Local\Temp\cceY9Tve.s:48     .text.T1powerUpInitPWM:000000000000002a .LVL3
C:\Users\GTSAIN~1\AppData\Local\Temp\cceY9Tve.s:71     .text.T1powerUpInitPWM:0000000000000050 .LVL4
C:\Users\GTSAIN~1\AppData\Local\Temp\cceY9Tve.s:75     .text.T1powerUpInitPWM:000000000000005c .LVL5
C:\Users\GTSAIN~1\AppData\Local\Temp\cceY9Tve.s:79     .text.T1powerUpInitPWM:0000000000000066 .LVL6
C:\Users\GTSAIN~1\AppData\Local\Temp\cceY9Tve.s:105    .text.T1powerUpInitPWM:000000000000008e .LVL7
C:\Users\GTSAIN~1\AppData\Local\Temp\cceY9Tve.s:109    .text.T1powerUpInitPWM:0000000000000098 .LVL8
C:\Users\GTSAIN~1\AppData\Local\Temp\cceY9Tve.s:157    .text.T1powerUpInitPWM:00000000000000c8 .LVL9
C:\Users\GTSAIN~1\AppData\Local\Temp\cceY9Tve.s:161    .text.T1powerUpInitPWM:00000000000000d4 .LVL10
C:\Users\GTSAIN~1\AppData\Local\Temp\cceY9Tve.s:187    .text.T1powerUpInitPWM:00000000000000f6 .LVL11
C:\Users\GTSAIN~1\AppData\Local\Temp\cceY9Tve.s:193    .text.T1powerUpInitPWM:0000000000000108 .LVL12
C:\Users\GTSAIN~1\AppData\Local\Temp\cceY9Tve.s:199    .text.T1powerUpInitPWM:0000000000000118 .LVL13
C:\Users\GTSAIN~1\AppData\Local\Temp\cceY9Tve.s:210    .text.T1powerUpInitPWM:000000000000012e .LVL14
C:\Users\GTSAIN~1\AppData\Local\Temp\cceY9Tve.s:216    .text.T1powerUpInitPWM:0000000000000140 .LVL15
C:\Users\GTSAIN~1\AppData\Local\Temp\cceY9Tve.s:222    .text.T1powerUpInitPWM:0000000000000150 .LVL16
C:\Users\GTSAIN~1\AppData\Local\Temp\cceY9Tve.s:230    .text.T1powerUpInitPWM:0000000000000162 .LVL17
C:\Users\GTSAIN~1\AppData\Local\Temp\cceY9Tve.s:236    .text.T1powerUpInitPWM:0000000000000174 .LVL18
C:\Users\GTSAIN~1\AppData\Local\Temp\cceY9Tve.s:242    .text.T1powerUpInitPWM:0000000000000184 .LVL19
C:\Users\GTSAIN~1\AppData\Local\Temp\cceY9Tve.s:253    .text.T1powerUpInitPWM:0000000000000198 .LVL20
C:\Users\GTSAIN~1\AppData\Local\Temp\cceY9Tve.s:259    .text.T1powerUpInitPWM:00000000000001aa .LVL21
C:\Users\GTSAIN~1\AppData\Local\Temp\cceY9Tve.s:265    .text.T1powerUpInitPWM:00000000000001ba .LVL22
C:\Users\GTSAIN~1\AppData\Local\Temp\cceY9Tve.s:276    .text.T1powerUpInitPWM:00000000000001d0 .LVL23
C:\Users\GTSAIN~1\AppData\Local\Temp\cceY9Tve.s:287    .text.T1powerUpInitPWM:00000000000001e6 .LVL24
C:\Users\GTSAIN~1\AppData\Local\Temp\cceY9Tve.s:298    .text.T1powerUpInitPWM:00000000000001fc .LVL25
C:\Users\GTSAIN~1\AppData\Local\Temp\cceY9Tve.s:309    .text.T1powerUpInitPWM:0000000000000212 .LVL26
C:\Users\GTSAIN~1\AppData\Local\Temp\cceY9Tve.s:322    .text.T1powerUpInitPWM:000000000000022e .LVL27
C:\Users\GTSAIN~1\AppData\Local\Temp\cceY9Tve.s:332    .text.T1powerUpInitPWM:0000000000000246 .LVL28
C:\Users\GTSAIN~1\AppData\Local\Temp\cceY9Tve.s:342    .text.T1powerUpInitPWM:000000000000025e .LVL29
C:\Users\GTSAIN~1\AppData\Local\Temp\cceY9Tve.s:352    .text.T1powerUpInitPWM:0000000000000276 .LVL30
C:\Users\GTSAIN~1\AppData\Local\Temp\cceY9Tve.s:2322   .debug_str:000000000000017a .LASF74
C:\Users\GTSAIN~1\AppData\Local\Temp\cceY9Tve.s:2344   .debug_str:000000000000022c .LASF75
C:\Users\GTSAIN~1\AppData\Local\Temp\cceY9Tve.s:2422   .debug_str:00000000000004f2 .LASF76
C:\Users\GTSAIN~1\AppData\Local\Temp\cceY9Tve.s:2374   .debug_str:000000000000039b .LASF77
C:\Users\GTSAIN~1\AppData\Local\Temp\cceY9Tve.s:2306   .debug_str:000000000000012e .LASF78
C:\Users\GTSAIN~1\AppData\Local\Temp\cceY9Tve.s:2278   .debug_str:0000000000000074 .LASF79
C:\Users\GTSAIN~1\AppData\Local\Temp\cceY9Tve.s:2414   .debug_str:000000000000049f .LASF80
C:\Users\GTSAIN~1\AppData\Local\Temp\cceY9Tve.s:2256   .debug_str:0000000000000000 .LASF81
C:\Users\GTSAIN~1\AppData\Local\Temp\cceY9Tve.s:2432   .debug_str:0000000000000524 .LASF82
C:\Users\GTSAIN~1\AppData\Local\Temp\cceY9Tve.s:2340   .debug_str:00000000000001fb .LASF83
C:\Users\GTSAIN~1\AppData\Local\Temp\cceY9Tve.s:2418   .debug_str:00000000000004ca .LASF84
C:\Users\GTSAIN~1\AppData\Local\Temp\cceY9Tve.s:2396   .debug_str:0000000000000437 .LASF85
C:\Users\GTSAIN~1\AppData\Local\Temp\cceY9Tve.s:392    .text.T1setPWMmotorB:0000000000000002 .LCFI3
C:\Users\GTSAIN~1\AppData\Local\Temp\cceY9Tve.s:438    .text.T1setPWMmotorB:0000000000000060 .LCFI4
C:\Users\GTSAIN~1\AppData\Local\Temp\cceY9Tve.s:444    .text.T1setPWMmotorB:0000000000000068 .LCFI5
C:\Users\GTSAIN~1\AppData\Local\Temp\cceY9Tve.s:487    .text.T1setPWMmotorB:00000000000000c4 .LCFI6
C:\Users\GTSAIN~1\AppData\Local\Temp\cceY9Tve.s:388    .text.T1setPWMmotorB:0000000000000000 .LVL34
C:\Users\GTSAIN~1\AppData\Local\Temp\cceY9Tve.s:403    .text.T1setPWMmotorB:0000000000000012 .LVL35
C:\Users\GTSAIN~1\AppData\Local\Temp\cceY9Tve.s:451    .text.T1setPWMmotorB:0000000000000072 .LVL41
C:\Users\GTSAIN~1\AppData\Local\Temp\cceY9Tve.s:476    .text.T1setPWMmotorB:00000000000000b8 .LVL47
C:\Users\GTSAIN~1\AppData\Local\Temp\cceY9Tve.s:365    .text.T1setPWMch2:0000000000000000 .LVL31
C:\Users\GTSAIN~1\AppData\Local\Temp\cceY9Tve.s:370    .text.T1setPWMch2:0000000000000008 .LVL32
C:\Users\GTSAIN~1\AppData\Local\Temp\cceY9Tve.s:24     .text.T1powerUpInitPWM:0000000000000002 .LCFI0
C:\Users\GTSAIN~1\AppData\Local\Temp\cceY9Tve.s:175    .text.T1powerUpInitPWM:00000000000000e0 .LCFI1
C:\Users\GTSAIN~1\AppData\Local\Temp\cceY9Tve.s:179    .text.T1powerUpInitPWM:00000000000000e2 .LCFI2
GAS LISTING C:\Users\GTSAIN~1\AppData\Local\Temp\cceY9Tve.s 			page 19


C:\Users\GTSAIN~1\AppData\Local\Temp\cceY9Tve.s:18     .text.T1powerUpInitPWM:0000000000000000 .LVL0
C:\Users\GTSAIN~1\AppData\Local\Temp\cceY9Tve.s:31     .text.T1powerUpInitPWM:000000000000000a .LVL1
C:\Users\GTSAIN~1\AppData\Local\Temp\cceY9Tve.s:512    .debug_info:0000000000000000 .Ldebug_info0

UNDEFINED SYMBOLS
rcu_periph_clock_enable
timer_deinit
timer_struct_para_init
timer_init
timer_channel_output_struct_para_init
timer_auto_reload_shadow_enable
timer_enable
timer_channel_output_pulse_value_config
timer_channel_output_mode_config
timer_channel_output_shadow_config
timer_channel_output_config
gpio_init
__floatsidf
__divdf3
__muldf3
__fixunsdfsi
