GAS LISTING C:\Users\GTSAIN~1\AppData\Local\Temp\ccX7X0CA.s 			page 1


   1              		.file	"main.c"
   2              		.option nopic
   3              		.attribute arch, "rv32i2p0_m2p0_a2p0_c2p0"
   4              		.attribute unaligned_access, 0
   5              		.attribute stack_align, 16
   6              		.text
   7              	.Ltext0:
   8              		.cfi_sections	.debug_frame
   9              		.section	.text.mt40k_init,"ax",@progbits
  10              		.align	1
  11              		.globl	mt40k_init
  13              	mt40k_init:
  14              	.LFB2:
  15              		.file 1 "main.c"
   1:main.c        **** #include "gd32vf103.h"
   2:main.c        **** #include "drivers.h"
   3:main.c        **** #include "dac.h"
   4:main.c        **** #include "pwm.h"
   5:main.c        **** #include "adc.h"
   6:main.c        **** #include "eclicw.h"
   7:main.c        **** 
   8:main.c        **** void mt40k_init(void (*pISR)(void)){
  16              		.loc 1 8 36
  17              		.cfi_startproc
  18              	.LVL0:
   9:main.c        ****    eclicw_enable(CLIC_INT_TMR, 1, 1, pISR);
  19              		.loc 1 9 4
   8:main.c        ****    eclicw_enable(CLIC_INT_TMR, 1, 1, pISR);
  20              		.loc 1 8 36 is_stmt 0
  21 0000 4111     		addi	sp,sp,-16
  22              	.LCFI0:
  23              		.cfi_def_cfa_offset 16
  24              		.loc 1 9 4
  25 0002 AA86     		mv	a3,a0
  26 0004 0546     		li	a2,1
  27 0006 8545     		li	a1,1
  28 0008 1D45     		li	a0,7
  29              	.LVL1:
   8:main.c        ****    eclicw_enable(CLIC_INT_TMR, 1, 1, pISR);
  30              		.loc 1 8 36
  31 000a 06C6     		sw	ra,12(sp)
  32              		.cfi_offset 1, -4
  33              		.loc 1 9 4
  34 000c 97000000 		call	eclicw_enable
  34      E7800000 
  35              	.LVL2:
  10:main.c        ****    // Set the timer expier (compar) value to 675 (27Mhz/40kHz).
  11:main.c        ****    *( volatile uint64_t * )( TIMER_CTRL_ADDR + TIMER_MTIMECMP ) = 675;
  36              		.loc 1 11 4 is_stmt 1
  37              		.loc 1 11 65 is_stmt 0
  38 0014 B70700D1 		li	a5,-788529152
  39 0018 1306302A 		li	a2,675
  40 001c 90C7     		sw	a2,8(a5)
  41 001e 8146     		li	a3,0
  42 0020 D4C7     		sw	a3,12(a5)
  12:main.c        ****    // Reset the timer value to zero.
  13:main.c        ****    *( volatile uint64_t * )( TIMER_CTRL_ADDR + TIMER_MTIME ) = 0;
GAS LISTING C:\Users\GTSAIN~1\AppData\Local\Temp\ccX7X0CA.s 			page 2


  43              		.loc 1 13 4 is_stmt 1
  14:main.c        **** }
  44              		.loc 1 14 1 is_stmt 0
  45 0022 B240     		lw	ra,12(sp)
  46              		.cfi_restore 1
  13:main.c        **** }
  47              		.loc 1 13 62
  48 0024 8146     		li	a3,0
  49 0026 94C3     		sw	a3,0(a5)
  50 0028 0147     		li	a4,0
  51 002a D8C3     		sw	a4,4(a5)
  52              		.loc 1 14 1
  53 002c 4101     		addi	sp,sp,16
  54              	.LCFI1:
  55              		.cfi_def_cfa_offset 0
  56 002e 8280     		jr	ra
  57              		.cfi_endproc
  58              	.LFE2:
  60              		.section	.text.lp,"ax",@progbits
  61              		.align	1
  62              		.globl	lp
  64              	lp:
  65              	.LFB3:
  15:main.c        **** /*
  16:main.c        **** void lp(void){
  17:main.c        ****     static int x=0;
  18:main.c        **** 
  19:main.c        ****     // Be aware of possible spirous int updating mtimecmp...
  20:main.c        ****     // LSW = -1; MSW = update; LSW = update, in this case safe.
  21:main.c        ****     *( volatile uint64_t * )( TIMER_CTRL_ADDR + TIMER_MTIMECMP )+=675;
  22:main.c        **** 
  23:main.c        ****     // Calcylate next output value...
  24:main.c        ****     DAC0set(x++%2?4000:0);
  25:main.c        ****     l88mem(7,x);
  26:main.c        **** }
  27:main.c        **** */
  28:main.c        **** 
  29:main.c        **** void lp(void){
  66              		.loc 1 29 14 is_stmt 1
  67              		.cfi_startproc
  30:main.c        ****     static int x=0, xp=0, y=0, yp=0;
  68              		.loc 1 30 5
  31:main.c        ****     static int g=0b0010001100000000; //0.1367287359(<<16)
  69              		.loc 1 31 5
  32:main.c        ****     static int p=0b1011100111111110; //0.7265425280(<<16)
  70              		.loc 1 32 5
  33:main.c        **** 
  34:main.c        ****     // Be aware of possible spirous int updating mtimecmp...
  35:main.c        ****     // LSW = -1; MSW = update; LSW = update, in this case safe.
  36:main.c        ****     *( volatile uint64_t * )( TIMER_CTRL_ADDR + TIMER_MTIMECMP )+=675;
  71              		.loc 1 36 5
  29:main.c        ****     static int x=0, xp=0, y=0, yp=0;
  72              		.loc 1 29 14 is_stmt 0
  73 0000 0111     		addi	sp,sp,-32
  74              	.LCFI2:
  75              		.cfi_def_cfa_offset 32
  76              		.loc 1 36 65
GAS LISTING C:\Users\GTSAIN~1\AppData\Local\Temp\ccX7X0CA.s 			page 3


  77 0002 B70500D1 		li	a1,-788529152
  29:main.c        ****     static int x=0, xp=0, y=0, yp=0;
  78              		.loc 1 29 14
  79 0006 22CC     		sw	s0,24(sp)
  80              		.cfi_offset 8, -8
  81              		.loc 1 36 65
  82 0008 8045     		lw	s0,8(a1)
  29:main.c        ****     static int x=0, xp=0, y=0, yp=0;
  83              		.loc 1 29 14
  84 000a 26CA     		sw	s1,20(sp)
  85              		.cfi_offset 9, -12
  86              		.loc 1 36 65
  87 000c C445     		lw	s1,12(a1)
  88 000e 1305342A 		addi	a0,s0,675
  89 0012 33368500 		sltu	a2,a0,s0
  29:main.c        ****     static int x=0, xp=0, y=0, yp=0;
  90              		.loc 1 29 14
  91 0016 06CE     		sw	ra,28(sp)
  92 0018 4AC8     		sw	s2,16(sp)
  93 001a 4EC6     		sw	s3,12(sp)
  94 001c 52C4     		sw	s4,8(sp)
  95              		.cfi_offset 1, -4
  96              		.cfi_offset 18, -16
  97              		.cfi_offset 19, -20
  98              		.cfi_offset 20, -24
  99              		.loc 1 36 65
 100 001e B3079600 		add	a5,a2,s1
  37:main.c        **** 
  38:main.c        ****     // Calcylate next output value...
  39:main.c        ****     xp=x; yp=y;
 101              		.loc 1 39 13
 102 0022 37040000 		lui	s0,%hi(.LANCHOR3)
 103              		.loc 1 39 7
 104 0026 B7040000 		lui	s1,%hi(.LANCHOR1)
  36:main.c        **** 
 105              		.loc 1 36 65
 106 002a 88C5     		sw	a0,8(a1)
 107              		.loc 1 39 7
 108 002c 93840400 		addi	s1,s1,%lo(.LANCHOR1)
 109              		.loc 1 39 13
 110 0030 13040400 		addi	s0,s0,%lo(.LANCHOR3)
  36:main.c        **** 
 111              		.loc 1 36 65
 112 0034 DCC5     		sw	a5,12(a1)
 113              		.loc 1 39 5 is_stmt 1
 114              		.loc 1 39 7 is_stmt 0
 115 0036 9840     		lw	a4,0(s1)
 116              		.loc 1 39 13
 117 0038 1C40     		lw	a5,0(s0)
  40:main.c        ****     x = ((adc_regular_data_read(ADC0)-2048))*g;
 118              		.loc 1 40 11
 119 003a 372A0140 		li	s4,1073815552
  39:main.c        ****     x = ((adc_regular_data_read(ADC0)-2048))*g;
 120              		.loc 1 39 7
 121 003e 37090000 		lui	s2,%hi(.LANCHOR0)
  39:main.c        ****     x = ((adc_regular_data_read(ADC0)-2048))*g;
 122              		.loc 1 39 13
GAS LISTING C:\Users\GTSAIN~1\AppData\Local\Temp\ccX7X0CA.s 			page 4


 123 0042 B7090000 		lui	s3,%hi(.LANCHOR2)
  39:main.c        ****     x = ((adc_regular_data_read(ADC0)-2048))*g;
 124              		.loc 1 39 7
 125 0046 13090900 		addi	s2,s2,%lo(.LANCHOR0)
  39:main.c        ****     x = ((adc_regular_data_read(ADC0)-2048))*g;
 126              		.loc 1 39 13
 127 004a 93890900 		addi	s3,s3,%lo(.LANCHOR2)
 128              		.loc 1 40 11
 129 004e 13050A40 		addi	a0,s4,1024
  39:main.c        ****     x = ((adc_regular_data_read(ADC0)-2048))*g;
 130              		.loc 1 39 7
 131 0052 2320E900 		sw	a4,0(s2)
  39:main.c        ****     x = ((adc_regular_data_read(ADC0)-2048))*g;
 132              		.loc 1 39 11 is_stmt 1
  39:main.c        ****     x = ((adc_regular_data_read(ADC0)-2048))*g;
 133              		.loc 1 39 13 is_stmt 0
 134 0056 23A0F900 		sw	a5,0(s3)
 135              		.loc 1 40 5 is_stmt 1
 136              		.loc 1 40 11 is_stmt 0
 137 005a 97000000 		call	adc_regular_data_read
 137      E7800000 
 138              	.LVL3:
  41:main.c        ****     y = (x+xp)+(int)(((int64_t)yp*(int64_t)p)>>16);
 139              		.loc 1 41 34
 140 0062 83A60900 		lw	a3,0(s3)
 141 0066 3166     		li	a2,49152
 142 0068 1306E69F 		addi	a2,a2,-1538
  40:main.c        ****     x = ((adc_regular_data_read(ADC0)-2048))*g;
 143              		.loc 1 40 45
 144 006c 8965     		li	a1,8192
 145              		.loc 1 41 34
 146 006e B387C602 		mul	a5,a3,a2
  40:main.c        ****     x = ((adc_regular_data_read(ADC0)-2048))*g;
 147              		.loc 1 40 38
 148 0072 13050580 		addi	a0,a0,-2048
  40:main.c        ****     x = ((adc_regular_data_read(ADC0)-2048))*g;
 149              		.loc 1 40 45
 150 0076 93850530 		addi	a1,a1,768
 151              		.loc 1 41 11
 152 007a 03270900 		lw	a4,0(s2)
 153              		.loc 1 41 34
 154 007e B396C602 		mulh	a3,a3,a2
 155              		.loc 1 41 46
 156 0082 13D60701 		srli	a2,a5,16
  40:main.c        ****     x = ((adc_regular_data_read(ADC0)-2048))*g;
 157              		.loc 1 40 45
 158 0086 B305B502 		mul	a1,a0,a1
 159              		.loc 1 41 46
 160 008a C206     		slli	a3,a3,16
 161 008c 558E     		or	a2,a3,a2
 162              		.loc 1 41 11
 163 008e B387E500 		add	a5,a1,a4
 164              		.loc 1 41 15
 165 0092 B297     		add	a5,a5,a2
  42:main.c        ****     DAC0set((y>>16)+2048);              // ...and present it to hw-driver.
 166              		.loc 1 42 5
 167 0094 0567     		li	a4,4096
GAS LISTING C:\Users\GTSAIN~1\AppData\Local\Temp\ccX7X0CA.s 			page 5


 168              		.loc 1 42 15
 169 0096 13D50741 		srai	a0,a5,16
 170              		.loc 1 42 5
 171 009a 13070780 		addi	a4,a4,-2048
 172 009e 3A95     		add	a0,a0,a4
  40:main.c        ****     y = (x+xp)+(int)(((int64_t)yp*(int64_t)p)>>16);
 173              		.loc 1 40 7
 174 00a0 8CC0     		sw	a1,0(s1)
  41:main.c        ****     y = (x+xp)+(int)(((int64_t)yp*(int64_t)p)>>16);
 175              		.loc 1 41 5 is_stmt 1
  41:main.c        ****     y = (x+xp)+(int)(((int64_t)yp*(int64_t)p)>>16);
 176              		.loc 1 41 7 is_stmt 0
 177 00a2 1CC0     		sw	a5,0(s0)
 178              		.loc 1 42 5 is_stmt 1
 179 00a4 97000000 		call	DAC0set
 179      E7800000 
 180              	.LVL4:
  43:main.c        **** 
  44:main.c        ****     adc_software_trigger_enable(ADC0, ADC_REGULAR_CHANNEL);
 181              		.loc 1 44 5
  45:main.c        **** }
 182              		.loc 1 45 1 is_stmt 0
 183 00ac 6244     		lw	s0,24(sp)
 184              		.cfi_restore 8
 185 00ae F240     		lw	ra,28(sp)
 186              		.cfi_restore 1
 187 00b0 D244     		lw	s1,20(sp)
 188              		.cfi_restore 9
 189 00b2 4249     		lw	s2,16(sp)
 190              		.cfi_restore 18
 191 00b4 B249     		lw	s3,12(sp)
 192              		.cfi_restore 19
  44:main.c        **** }
 193              		.loc 1 44 5
 194 00b6 13050A40 		addi	a0,s4,1024
 195              		.loc 1 45 1
 196 00ba 224A     		lw	s4,8(sp)
 197              		.cfi_restore 20
  44:main.c        **** }
 198              		.loc 1 44 5
 199 00bc 8545     		li	a1,1
 200              		.loc 1 45 1
 201 00be 0561     		addi	sp,sp,32
 202              	.LCFI3:
 203              		.cfi_def_cfa_offset 0
  44:main.c        **** }
 204              		.loc 1 44 5
 205 00c0 17030000 		tail	adc_software_trigger_enable
 205      67000300 
 206              	.LVL5:
 207              		.cfi_endproc
 208              	.LFE3:
 210              		.section	.text.startup.main,"ax",@progbits
 211              		.align	1
 212              		.globl	main
 214              	main:
 215              	.LFB4:
GAS LISTING C:\Users\GTSAIN~1\AppData\Local\Temp\ccX7X0CA.s 			page 6


  46:main.c        **** 
  47:main.c        **** int main(void){
 216              		.loc 1 47 15 is_stmt 1
 217              		.cfi_startproc
  48:main.c        ****     int ms=0, s=0, key, pKey=-1, c=0, idle=0;
 218              		.loc 1 48 5
 219              	.LVL6:
  49:main.c        ****     int lookUpTbl[16]={1,4,7,14,2,5,8,0,3,6,9,15,10,11,12,13};
 220              		.loc 1 49 5
  50:main.c        ****     int dac=0, speed=-100;
 221              		.loc 1 50 5
  51:main.c        ****     int adcr, tmpr;
 222              		.loc 1 51 5
  52:main.c        **** 
  53:main.c        ****     t5omsi();                               // Initialize timer5 1kHz
 223              		.loc 1 53 5
  47:main.c        ****     int ms=0, s=0, key, pKey=-1, c=0, idle=0;
 224              		.loc 1 47 15 is_stmt 0
 225 0000 0111     		addi	sp,sp,-32
 226              	.LCFI4:
 227              		.cfi_def_cfa_offset 32
 228 0002 06CE     		sw	ra,28(sp)
 229 0004 22CC     		sw	s0,24(sp)
 230 0006 26CA     		sw	s1,20(sp)
 231 0008 4AC8     		sw	s2,16(sp)
 232 000a 4EC6     		sw	s3,12(sp)
 233              		.cfi_offset 1, -4
 234              		.cfi_offset 8, -8
 235              		.cfi_offset 9, -12
 236              		.cfi_offset 18, -16
 237              		.cfi_offset 19, -20
 238              		.loc 1 53 5
 239 000c 97000000 		call	t5omsi
 239      E7800000 
 240              	.LVL7:
  54:main.c        ****     colinit();                              // Initialize column toolbox
 241              		.loc 1 54 5 is_stmt 1
 242 0014 97000000 		call	colinit
 242      E7800000 
 243              	.LVL8:
  55:main.c        ****     l88init();                              // Initialize 8*8 led toolbox
 244              		.loc 1 55 5
 245 001c 97000000 		call	l88init
 245      E7800000 
 246              	.LVL9:
  56:main.c        ****     keyinit();                              // Initialize keyboard toolbox
 247              		.loc 1 56 5
 248 0024 97000000 		call	keyinit
 248      E7800000 
 249              	.LVL10:
  57:main.c        ****     //DAC0powerUpInit();                      // Initialize DAC0/PA4 toolbox
  58:main.c        ****     //T1powerUpInitPWM(0x4);                  // Timer #1, Ch #2 PWM
  59:main.c        ****     //T1powerUpInitPWM(0xC);                  // Timer #1, Ch #2 & 3 PWM
  60:main.c        ****     ADC3powerUpInit(1);                     // Initialize ADC0, Ch3 & Ch16
 250              		.loc 1 60 5
 251 002c 0545     		li	a0,1
  61:main.c        ****     //mt40k_init(&lp);                        // Initialize mtime 40kHz
GAS LISTING C:\Users\GTSAIN~1\AppData\Local\Temp\ccX7X0CA.s 			page 7


  62:main.c        **** 
  63:main.c        ****     //eclic_global_interrupt_enable();        // !!!!! Enable Interrupt !!!!!
  64:main.c        **** 
  65:main.c        ****     while (1) {
  66:main.c        ****         idle++;                             // Manage Async events
  67:main.c        **** 
  68:main.c        ****         if (adc_flag_get(ADC0,ADC_FLAG_EOC)==SET) { // ...ADC done?
 252              		.loc 1 68 13 is_stmt 0
 253 002e 37240140 		li	s0,1073815552
  60:main.c        ****     //mt40k_init(&lp);                        // Initialize mtime 40kHz
 254              		.loc 1 60 5
 255 0032 97000000 		call	ADC3powerUpInit
 255      E7800000 
 256              	.LVL11:
 257              		.loc 1 68 13
 258 003a 13040440 		addi	s0,s0,1024
 259              		.loc 1 68 12
 260 003e 8544     		li	s1,1
  69:main.c        ****           if (adc_flag_get(ADC0,ADC_FLAG_EOIC)==SET) { //...ch3 or ch16?
  70:main.c        ****             tmpr = adc_inserted_data_read(ADC0, ADC_INSERTED_CHANNEL_0);
  71:main.c        ****             l88mem(6,((0x680-tmpr)/5)+25);
 261              		.loc 1 71 29
 262 0040 93090068 		li	s3,1664
 263              		.loc 1 71 35
 264 0044 1549     		li	s2,5
 265              	.LVL12:
 266              	.L9:
  65:main.c        ****         idle++;                             // Manage Async events
 267              		.loc 1 65 5 is_stmt 1
  66:main.c        **** 
 268              		.loc 1 66 9
  68:main.c        ****           if (adc_flag_get(ADC0,ADC_FLAG_EOIC)==SET) { //...ch3 or ch16?
 269              		.loc 1 68 9
  68:main.c        ****           if (adc_flag_get(ADC0,ADC_FLAG_EOIC)==SET) { //...ch3 or ch16?
 270              		.loc 1 68 13 is_stmt 0
 271 0046 8945     		li	a1,2
 272 0048 2285     		mv	a0,s0
 273 004a 97000000 		call	adc_flag_get
 273      E7800000 
 274              	.LVL13:
  68:main.c        ****           if (adc_flag_get(ADC0,ADC_FLAG_EOIC)==SET) { //...ch3 or ch16?
 275              		.loc 1 68 12
 276 0052 63019504 		beq	a0,s1,.L14
 277              	.L7:
  72:main.c        ****             adc_flag_clear(ADC0, ADC_FLAG_EOC);
  73:main.c        ****             adc_flag_clear(ADC0, ADC_FLAG_EOIC);
  74:main.c        ****           } else {
  75:main.c        ****             adcr = adc_regular_data_read(ADC0); // ......get data
  76:main.c        ****             //l88mem(4,adcr>>8);                  // ......move data
  77:main.c        ****             //l88mem(5,adcr);                     // ......(view each ms)
  78:main.c        ****             adc_flag_clear(ADC0, ADC_FLAG_EOC); // ......clear IF
  79:main.c        ****           }
  80:main.c        ****         }
  81:main.c        **** 
  82:main.c        ****         if (t5expq()) {                     // Manage periodic tasks
 278              		.loc 1 82 9 is_stmt 1
 279              		.loc 1 82 13 is_stmt 0
GAS LISTING C:\Users\GTSAIN~1\AppData\Local\Temp\ccX7X0CA.s 			page 8


 280 0056 97000000 		call	t5expq
 280      E7800000 
 281              	.LVL14:
  83:main.c        ****             l88row(colset());               // ...8*8LED and Keyboard
 282              		.loc 1 83 13 is_stmt 1
  82:main.c        ****             l88row(colset());               // ...8*8LED and Keyboard
 283              		.loc 1 82 12 is_stmt 0
 284 005e 65D5     		beq	a0,zero,.L9
 285              		.loc 1 83 13
 286 0060 97000000 		call	colset
 286      E7800000 
 287              	.LVL15:
 288 0068 97000000 		call	l88row
 288      E7800000 
 289              	.LVL16:
  84:main.c        ****             ms++;                           // ...One second heart beat
 290              		.loc 1 84 13 is_stmt 1
  85:main.c        ****             if (ms==1000){
 291              		.loc 1 85 13
  86:main.c        ****               ms=0;
  87:main.c        ****               //l88mem(0,s++);
  88:main.c        ****               //T1setPWMmotorB(speed+=10);    // PWM T1/C23 Unit test
  89:main.c        ****               //if (speed>=100) speed=-100;
  90:main.c        ****             }
  91:main.c        ****             if ((key=keyscan())>=0) {       // ...Any key pressed?
 292              		.loc 1 91 13
 293              		.loc 1 91 22 is_stmt 0
 294 0070 97000000 		call	keyscan
 294      E7800000 
 295              	.LVL17:
  92:main.c        ****               if (pKey==key) c++; else {c=0; pKey=key;}
  93:main.c        ****               //l88mem(1,lookUpTbl[key]+(c<<4));
  94:main.c        ****             }
  95:main.c        ****             //l88mem(2,idle>>8);              // ...Performance monitor
  96:main.c        ****             //l88mem(3,idle); idle=0;
  97:main.c        ****             //DAC0set(dac++);                   // DAC0 Unit test
  98:main.c        ****             //T1setPWMch2(15000);               // PWM T1/C2 Unit test
  99:main.c        ****             adc_software_trigger_enable(ADC0, //Trigger another ADC conversion!
 296              		.loc 1 99 13 is_stmt 1
 297 0078 8545     		li	a1,1
 298 007a 2285     		mv	a0,s0
 299 007c 97000000 		call	adc_software_trigger_enable
 299      E7800000 
 300              	.LVL18:
  65:main.c        ****         idle++;                             // Manage Async events
 301              		.loc 1 65 5
  66:main.c        **** 
 302              		.loc 1 66 9
  68:main.c        ****           if (adc_flag_get(ADC0,ADC_FLAG_EOIC)==SET) { //...ch3 or ch16?
 303              		.loc 1 68 9
  68:main.c        ****           if (adc_flag_get(ADC0,ADC_FLAG_EOIC)==SET) { //...ch3 or ch16?
 304              		.loc 1 68 13 is_stmt 0
 305 0084 8945     		li	a1,2
 306 0086 2285     		mv	a0,s0
 307 0088 97000000 		call	adc_flag_get
 307      E7800000 
 308              	.LVL19:
GAS LISTING C:\Users\GTSAIN~1\AppData\Local\Temp\ccX7X0CA.s 			page 9


  68:main.c        ****           if (adc_flag_get(ADC0,ADC_FLAG_EOIC)==SET) { //...ch3 or ch16?
 309              		.loc 1 68 12
 310 0090 E31395FC 		bne	a0,s1,.L7
 311              	.L14:
  69:main.c        ****             tmpr = adc_inserted_data_read(ADC0, ADC_INSERTED_CHANNEL_0);
 312              		.loc 1 69 11 is_stmt 1
  69:main.c        ****             tmpr = adc_inserted_data_read(ADC0, ADC_INSERTED_CHANNEL_0);
 313              		.loc 1 69 15 is_stmt 0
 314 0094 9145     		li	a1,4
 315 0096 2285     		mv	a0,s0
 316 0098 97000000 		call	adc_flag_get
 316      E7800000 
 317              	.LVL20:
  75:main.c        ****             //l88mem(4,adcr>>8);                  // ......move data
 318              		.loc 1 75 13 is_stmt 1
  69:main.c        ****             tmpr = adc_inserted_data_read(ADC0, ADC_INSERTED_CHANNEL_0);
 319              		.loc 1 69 14 is_stmt 0
 320 00a0 630E9500 		beq	a0,s1,.L15
  75:main.c        ****             //l88mem(4,adcr>>8);                  // ......move data
 321              		.loc 1 75 20
 322 00a4 2285     		mv	a0,s0
 323 00a6 97000000 		call	adc_regular_data_read
 323      E7800000 
 324              	.LVL21:
  78:main.c        ****           }
 325              		.loc 1 78 13 is_stmt 1
 326 00ae 8945     		li	a1,2
 327 00b0 2285     		mv	a0,s0
 328 00b2 97000000 		call	adc_flag_clear
 328      E7800000 
 329              	.LVL22:
 330 00ba 71BF     		j	.L7
 331              	.L15:
  70:main.c        ****             l88mem(6,((0x680-tmpr)/5)+25);
 332              		.loc 1 70 13
  70:main.c        ****             l88mem(6,((0x680-tmpr)/5)+25);
 333              		.loc 1 70 20 is_stmt 0
 334 00bc 8145     		li	a1,0
 335 00be 2285     		mv	a0,s0
 336 00c0 97000000 		call	adc_inserted_data_read
 336      E7800000 
 337              	.LVL23:
  71:main.c        ****             adc_flag_clear(ADC0, ADC_FLAG_EOC);
 338              		.loc 1 71 13 is_stmt 1
  71:main.c        ****             adc_flag_clear(ADC0, ADC_FLAG_EOC);
 339              		.loc 1 71 29 is_stmt 0
 340 00c8 B385A940 		sub	a1,s3,a0
  71:main.c        ****             adc_flag_clear(ADC0, ADC_FLAG_EOC);
 341              		.loc 1 71 35
 342 00cc B3C52503 		div	a1,a1,s2
  71:main.c        ****             adc_flag_clear(ADC0, ADC_FLAG_EOC);
 343              		.loc 1 71 13
 344 00d0 1945     		li	a0,6
 345              	.LVL24:
 346 00d2 E505     		addi	a1,a1,25
 347 00d4 97000000 		call	l88mem
 347      E7800000 
GAS LISTING C:\Users\GTSAIN~1\AppData\Local\Temp\ccX7X0CA.s 			page 10


 348              	.LVL25:
  72:main.c        ****             adc_flag_clear(ADC0, ADC_FLAG_EOIC);
 349              		.loc 1 72 13 is_stmt 1
 350 00dc 2285     		mv	a0,s0
 351 00de 8945     		li	a1,2
 352 00e0 97000000 		call	adc_flag_clear
 352      E7800000 
 353              	.LVL26:
  73:main.c        ****           } else {
 354              		.loc 1 73 13
 355 00e8 9145     		li	a1,4
 356 00ea 2285     		mv	a0,s0
 357 00ec 97000000 		call	adc_flag_clear
 357      E7800000 
 358              	.LVL27:
 359 00f4 8DB7     		j	.L7
 360              		.cfi_endproc
 361              	.LFE4:
 363              		.section	.sbss.x.3527,"aw",@nobits
 364              		.align	2
 365              		.set	.LANCHOR1,. + 0
 368              	x.3527:
 369 0000 00000000 		.zero	4
 370              		.section	.sbss.xp.3528,"aw",@nobits
 371              		.align	2
 372              		.set	.LANCHOR0,. + 0
 375              	xp.3528:
 376 0000 00000000 		.zero	4
 377              		.section	.sbss.y.3529,"aw",@nobits
 378              		.align	2
 379              		.set	.LANCHOR3,. + 0
 382              	y.3529:
 383 0000 00000000 		.zero	4
 384              		.section	.sbss.yp.3530,"aw",@nobits
 385              		.align	2
 386              		.set	.LANCHOR2,. + 0
 389              	yp.3530:
 390 0000 00000000 		.zero	4
 391              		.text
 392              	.Letext0:
 393              		.file 2 "c:\\users\\gtsa infinity\\desktop\\toolchain-gd32v-win\\compiler\\riscv64-unknown-elf\\in
 394              		.file 3 "c:\\users\\gtsa infinity\\desktop\\toolchain-gd32v-win\\compiler\\riscv64-unknown-elf\\in
 395              		.file 4 "drivers.h"
 396              		.file 5 "adc.h"
 397              		.file 6 "../../firmware/GD32VF103_standard_peripheral/Include/gd32vf103_adc.h"
 398              		.file 7 "dac.h"
 399              		.file 8 "eclicw.h"
 400              		.file 9 "../../firmware/GD32VF103_standard_peripheral/gd32vf103.h"
 401              		.file 10 "../../firmware/GD32VF103_standard_peripheral/system_gd32vf103.h"
GAS LISTING C:\Users\GTSAIN~1\AppData\Local\Temp\ccX7X0CA.s 			page 11

