GAS LISTING C:\Users\GTSAIN~1\AppData\Local\Temp\ccIslvt7.s 			page 1


   1              		.file	"main.c"
   2              		.option nopic
   3              		.attribute arch, "rv32i2p0_m2p0_a2p0_c2p0"
   4              		.attribute unaligned_access, 0
   5              		.attribute stack_align, 16
   6              		.text
   7              	.Ltext0:
   8              		.cfi_sections	.debug_frame
   9              		.section	.text.drawing,"ax",@progbits
  10              		.align	1
  11              		.globl	drawing
  13              	drawing:
  14              	.LFB2:
  15              		.file 1 "main.c"
   1:main.c        **** #include "gd32vf103.h"
   2:main.c        **** #include "drivers.h"
   3:main.c        **** #include "lcd.h"
   4:main.c        **** 
   5:main.c        **** void drawing(int key,int *x1,int *y1,int *x2,int *y2,int *counter1,int *counter2,int *colourCounter
   6:main.c        **** {
  16              		.loc 1 6 1
  17              		.cfi_startproc
  18              	.LVL0:
   7:main.c        ****   switch(key)
  19              		.loc 1 7 3
  20 0000 3D43     		li	t1,15
   6:main.c        ****   switch(key)
  21              		.loc 1 6 1 is_stmt 0
  22 0002 2E8E     		mv	t3,a1
  23 0004 B28E     		mv	t4,a2
  24 0006 BA85     		mv	a1,a4
  25              	.LVL1:
  26 0008 3686     		mv	a2,a3
  27              	.LVL2:
  28 000a 024F     		lw	t5,0(sp)
  29 000c 9246     		lw	a3,4(sp)
  30              	.LVL3:
  31              		.loc 1 7 3
  32 000e 6363A302 		bgtu	a0,t1,.L1
  33 0012 37070000 		lui	a4,%hi(.L4)
  34              	.LVL4:
  35 0016 13070700 		addi	a4,a4,%lo(.L4)
  36 001a 0A05     		slli	a0,a0,2
  37              	.LVL5:
  38 001c 3A95     		add	a0,a0,a4
  39 001e 1841     		lw	a4,0(a0)
  40 0020 0287     		jr	a4
  41              		.section	.rodata.drawing,"a",@progbits
  42              		.align	2
  43              		.align	2
  44              	.L4:
  45 0000 00000000 		.word	.L19
  46 0004 00000000 		.word	.L18
  47 0008 00000000 		.word	.L17
  48 000c 00000000 		.word	.L16
  49 0010 00000000 		.word	.L15
  50 0014 00000000 		.word	.L14
GAS LISTING C:\Users\GTSAIN~1\AppData\Local\Temp\ccIslvt7.s 			page 2


  51 0018 00000000 		.word	.L13
  52 001c 00000000 		.word	.L12
  53 0020 00000000 		.word	.L11
  54 0024 00000000 		.word	.L10
  55 0028 00000000 		.word	.L9
  56 002c 00000000 		.word	.L8
  57 0030 00000000 		.word	.L7
  58 0034 00000000 		.word	.L6
  59 0038 00000000 		.word	.L5
  60 003c 00000000 		.word	.L3
  61              		.section	.text.drawing
  62              	.L9:
   8:main.c        ****   {
   9:main.c        ****     case 0: *counter1=*counter1+1; //COUNT UP +1
  10:main.c        ****       if(*counter1==5){*counter1=0;*x1=-1;*y1=-1;*counter2=-1;*x2=-1;*y2=-1; *colourCounter=-1; *co
  11:main.c        ****       if(*counter1==0 && *x2==-1 || *counter1==2 && *x1==-1){*x1=*x1+1;} if(*counter1==1 && *y2==-1
  12:main.c        ****       if(*counter2>-1){*counter2=*counter2+1; if(*counter2==2){*y2=*y2+1;} if(*counter2==1){*x2=*x2
  13:main.c        ****       if(*colourCounter==0){*colourchoice=*colourchoice+0;} return; 
  14:main.c        **** 
  15:main.c        ****     case 1: *counter1=*counter1+1; //COUNT UP +1
  16:main.c        ****       if(*counter1==5){*counter1=0;*x1=-1;*y1=-1;*counter2=-1;*x2=-1;*y2=-1; *colourCounter=-1; *co
  17:main.c        ****       if(*counter1==0 && *x2==-1 || *counter1==2 && *x1==-1){*x1=*x1+17;} if(*counter1==1 && *y2==-
  18:main.c        ****       if(*counter2>-1){*counter2=*counter2+1; if(*counter2==2){*y2=*y2+9;} if(*counter2==1){*x2=*x2
  19:main.c        ****       if(*colourCounter==0){*colourchoice=*colourchoice+1;} return; 
  20:main.c        **** 
  21:main.c        ****     case 2: *counter1=*counter1+1; //COUNT UP +1
  22:main.c        ****       if(*counter1==5){*counter1=0;*x1=-1;*y1=-1;*counter2=-1;*x2=-1;*y2=-1; *colourCounter=-1; *co
  23:main.c        ****       if(*counter1==0 && *x2==-1 || *counter1==2 && *x1==-1){*x1=*x1+33;} if(*counter1==1 && *y2==-
  24:main.c        ****       if(*counter2>-1){*counter2=*counter2+1; if(*counter2==2){*y2=*y2+17;} if(*counter2==1){*x2=*x
  25:main.c        ****       if(*colourCounter==0){*colourchoice=*colourchoice+2;} return; 
  26:main.c        **** 
  27:main.c        ****     case 3: *counter1=*counter1+1; //COUNT UP +1
  28:main.c        ****       if(*counter1==5){*counter1=0;*x1=-1;*y1=-1;*counter2=-1;*x2=-1;*y2=-1; *colourCounter=-1; *co
  29:main.c        ****       if(*counter1==0 && *x2==-1 || *counter1==2 && *x1==-1){*x1=*x1+49;} if(*counter1==1 && *y2==-
  30:main.c        ****       if(*counter2>-1){*counter2=*counter2+1; if(*counter2==2){*y2=*y2+25;} if(*counter2==1){*x2=*x
  31:main.c        ****       if(*colourCounter==0){*colourchoice=*colourchoice+3;} return; 
  32:main.c        **** 
  33:main.c        ****     case 4: *counter1=*counter1+1; //COUNT UP +1
  34:main.c        ****       if(*counter1==5){*counter1=0;*x1=-1;*y1=-1;*counter2=-1;*x2=-1;*y2=-1; *colourCounter=-1; *co
  35:main.c        ****       if(*counter1==0 && *x2==-1 || *counter1==2 && *x1==-1){*x1=*x1+65;} if(*counter1==1 && *y2==-
  36:main.c        ****       if(*counter2>-1){*counter2=*counter2+1; if(*counter2==2){*y2=*y2+33;} if(*counter2==1){*x2=*x
  37:main.c        ****       if(*colourCounter==0){*colourchoice=*colourchoice+4;} return; 
  38:main.c        **** 
  39:main.c        ****     case 5: *counter1=*counter1+1; //COUNT UP +1 
  40:main.c        ****       if(*counter1==5){*counter1=0;*x1=-1;*y1=-1;*counter2=-1;*x2=-1;*y2=-1; *colourCounter=-1; *co
  41:main.c        ****       if(*counter1==0 && *x2==-1 || *counter1==2 && *x1==-1){*x1=*x1+81;} if(*counter1==1 && *y2==-
  42:main.c        ****       if(*counter2>-1){*counter2=*counter2+1; if(*counter2==2){*y2=*y2+41;} if(*counter2==1){*x2=*x
  43:main.c        ****       if(*colourCounter==0){*colourchoice=*colourchoice+5;} return; 
  44:main.c        **** 
  45:main.c        ****     case 6: *counter1=*counter1+1; //COUNT UP +1
  46:main.c        ****       if(*counter1==5){*counter1=0;*x1=-1;*y1=-1;*counter2=-1;*x2=-1;*y2=-1; *colourCounter=-1; *co
  47:main.c        ****       if(*counter1==0 && *x2==-1 || *counter1==2 && *x1==-1){*x1=*x1+97;} if(*counter1==1 && *y2==-
  48:main.c        ****       if(*counter2>-1){*counter2=*counter2+1; if(*counter2==2){*y2=*y2+49;} if(*counter2==1){*x2=*x
  49:main.c        ****       if(*colourCounter==0){*colourchoice=*colourchoice+6;} return; 
  50:main.c        **** 
  51:main.c        ****     case 7: *counter1=*counter1+1; //COUNT UP +1
  52:main.c        ****       if(*counter1==5){*counter1=0;*x1=-1;*y1=-1;*counter2=-1;*x2=-1;*y2=-1; *colourCounter=-1; *co
GAS LISTING C:\Users\GTSAIN~1\AppData\Local\Temp\ccIslvt7.s 			page 3


  53:main.c        ****       if(*counter1==0 && *x2==-1 || *counter1==2 && *x1==-1){*x1=*x1+113;} if(*counter1==1 && *y2==
  54:main.c        ****       if(*counter2>-1){*counter2=*counter2+1; if(*counter2==2){*x2=*y2+57;} if(*counter2==1){*y2=*x
  55:main.c        ****       if(*colourCounter==0){*colourchoice=*colourchoice+7;} return; 
  56:main.c        **** 
  57:main.c        ****     case 8: *counter1=*counter1+1; //COUNT UP +1
  58:main.c        ****       if(*counter1==5){*counter1=0;*x1=-1;*y1=-1;*counter2=-1;*x2=-1;*y2=-1; *colourCounter=-1; *co
  59:main.c        ****       if(*counter1==0 && *x2==-1 || *counter1==2 && *x1==-1){*x1=*x1+129;} if(*counter1==1 && *y2==
  60:main.c        ****       if(*counter2>-1){*counter2=*counter2+1; if(*counter2==2){*y2=*y2+65;} if(*counter2==1){*x2=*x
  61:main.c        ****       if(*colourCounter==0){*colourchoice=*colourchoice+8;} return; 
  62:main.c        **** 
  63:main.c        ****     case 9: *counter1=*counter1+1; //COUNT UP +1
  64:main.c        ****       if(*counter1==5){*counter1=0;*x1=-1;*y1=-1;*counter2=-1;*x2=-1;*y2=-1; *colourCounter=-1; *co
  65:main.c        ****       if(*counter1==0 && *x2==-1|| *counter1==2 && *x1==-1){*x1=*x1+160;} if(*counter1==1 && *y2==-
  66:main.c        ****       if(*counter2>-1){*counter2=*counter2+1; if(*counter2==2){*y2=*y2+81;} if(*counter2==1){*x2=*x
  67:main.c        ****       if(*colourCounter==0){*colourchoice=*colourchoice+9;} return;  
  68:main.c        **** 
  69:main.c        ****     case 10: if(*x2==-1){*counter2=0;} if(*x2>-1){*colourCounter=0;} return; //A 1 REGISTER
  63              		.loc 1 69 14 is_stmt 1
  64              		.loc 1 69 17 is_stmt 0
  65 0022 1C42     		lw	a5,0(a2)
  66              	.LVL6:
  67              		.loc 1 69 16
  68 0024 7D57     		li	a4,-1
  69 0026 6395E700 		bne	a5,a4,.L159
  70              		.loc 1 69 26 is_stmt 1 discriminator 1
  71              		.loc 1 69 35 is_stmt 0 discriminator 1
  72 002a 23200800 		sw	zero,0(a6)
  73 002e 1C42     		lw	a5,0(a2)
  74              	.L159:
  75              		.loc 1 69 40 is_stmt 1 discriminator 3
  76              		.loc 1 69 42 is_stmt 0 discriminator 3
  77 0030 63D10740 		bge	a5,zero,.L161
  78              	.L1:
  70:main.c        ****     
  71:main.c        ****     case 11: if(*counter2==-1){*x2=*x1; *y2=*y1; *y1=-1; *x1=-1;} if(*x1>-1){*colourCounter=0;} ret
  72:main.c        **** 
  73:main.c        ****     case 12: if(*colourCounter<0){*counter1=-1; *counter2=-1; *x1=-1; *y1=-1; *x2=-1; *y2=-1; retur
  74:main.c        ****              if(*colourchoice==0){*colourDisplay=65535; return;}//WHITE
  75:main.c        ****              if(*colourchoice==1){*colourDisplay=65504; return;}//YELLOW
  76:main.c        ****              if(*colourchoice==2){*colourDisplay=63519; return;}//BRED
  77:main.c        ****              if(*colourchoice==3){*colourDisplay=48192; return;}//BROWN
  78:main.c        ****              if(*colourchoice==4){*colourDisplay=0; return;}//BLACK
  79:main.c        ****              if(*colourchoice==5){*colourDisplay=31; return;}//BLUE
  80:main.c        ****              if(*colourchoice==6){*colourDisplay=2016; return;}//GREEN
  81:main.c        ****              if(*colourchoice==7){*colourDisplay=32767; return;}//CYAN
  82:main.c        ****              if(*colourchoice==8){*colourDisplay=33840; return;}//GRAY
  83:main.c        ****              if(*colourchoice==9){*colourDisplay=463; return;}//DARK BLUE
  84:main.c        **** 
  85:main.c        ****     case 13: LCD_DrawLine(*x1,*y1,*x2,*y2,*colourDisplay); return; //DRAW LINE
  86:main.c        ****     case 14: /*LCD_ShowStr(140, 60, "ST", WHITE, TRANSPARENT);*/ Draw_Circle(*x1,*y1,*y2,*colourDis
  87:main.c        ****     case 15: LCD_Fill(*x1,*y1,*x2,*y2,*colourDisplay); return; //RECTANGLE
  88:main.c        ****              /*LCD_Clear(RED); *colourDisplay=0; *counter1=-1; *counter2=-1;  *colourCounter=-1; *x
  89:main.c        ****                
  90:main.c        ****   }
  91:main.c        **** }
  79              		.loc 1 91 1
  80 0034 8280     		ret
GAS LISTING C:\Users\GTSAIN~1\AppData\Local\Temp\ccIslvt7.s 			page 4


  81              	.LVL7:
  82              	.L6:
  85:main.c        ****     case 14: /*LCD_ShowStr(140, 60, "ST", WHITE, TRANSPARENT);*/ Draw_Circle(*x1,*y1,*y2,*colourDis
  83              		.loc 1 85 14 is_stmt 1
  84 0036 9441     		lw	a3,0(a1)
  85              	.LVL8:
  86 0038 03270F00 		lw	a4,0(t5)
  87 003c 1042     		lw	a2,0(a2)
  88              	.LVL9:
  89 003e 83A50E00 		lw	a1,0(t4)
  90              	.LVL10:
  91 0042 03250E00 		lw	a0,0(t3)
  92 0046 17030000 		tail	LCD_DrawLine
  92      67000300 
  93              	.LVL11:
  94              	.L5:
  86:main.c        ****     case 15: LCD_Fill(*x1,*y1,*x2,*y2,*colourDisplay); return; //RECTANGLE
  95              		.loc 1 86 66
  96 004e 03C60500 		lbu	a2,0(a1)
  97              	.LVL12:
  98 0052 83260F00 		lw	a3,0(t5)
  99              	.LVL13:
 100 0056 83A50E00 		lw	a1,0(t4)
 101              	.LVL14:
 102 005a 03250E00 		lw	a0,0(t3)
 103 005e 17030000 		tail	Draw_Circle
 103      67000300 
 104              	.LVL15:
 105              	.L3:
  87:main.c        ****              /*LCD_Clear(RED); *colourDisplay=0; *counter1=-1; *counter2=-1;  *colourCounter=-1; *x
 106              		.loc 1 87 14
 107 0066 9441     		lw	a3,0(a1)
 108              	.LVL16:
 109 0068 03270F00 		lw	a4,0(t5)
 110 006c 1042     		lw	a2,0(a2)
 111              	.LVL17:
 112 006e 83A50E00 		lw	a1,0(t4)
 113              	.LVL18:
 114 0072 03250E00 		lw	a0,0(t3)
 115 0076 17030000 		tail	LCD_Fill
 115      67000300 
 116              	.LVL19:
 117              	.L19:
   9:main.c        ****       if(*counter1==5){*counter1=0;*x1=-1;*y1=-1;*counter2=-1;*x2=-1;*y2=-1; *colourCounter=-1; *co
 118              		.loc 1 9 13
   9:main.c        ****       if(*counter1==5){*counter1=0;*x1=-1;*y1=-1;*counter2=-1;*x2=-1;*y2=-1; *colourCounter=-1; *co
 119              		.loc 1 9 32 is_stmt 0
 120 007e 9843     		lw	a4,0(a5)
  10:main.c        ****       if(*counter1==0 && *x2==-1 || *counter1==2 && *x1==-1){*x1=*x1+1;} if(*counter1==1 && *y2==-1
 121              		.loc 1 10 9
 122 0080 1545     		li	a0,5
   9:main.c        ****       if(*counter1==5){*counter1=0;*x1=-1;*y1=-1;*counter2=-1;*x2=-1;*y2=-1; *colourCounter=-1; *co
 123              		.loc 1 9 32
 124 0082 0507     		addi	a4,a4,1
  10:main.c        ****       if(*counter1==0 && *x2==-1 || *counter1==2 && *x1==-1){*x1=*x1+1;} if(*counter1==1 && *y2==-1
 125              		.loc 1 10 7 is_stmt 1
  10:main.c        ****       if(*counter1==0 && *x2==-1 || *counter1==2 && *x1==-1){*x1=*x1+1;} if(*counter1==1 && *y2==-1
GAS LISTING C:\Users\GTSAIN~1\AppData\Local\Temp\ccIslvt7.s 			page 5


 126              		.loc 1 10 9 is_stmt 0
 127 0084 6302A744 		beq	a4,a0,.L20
   9:main.c        ****       if(*counter1==5){*counter1=0;*x1=-1;*y1=-1;*counter2=-1;*x2=-1;*y2=-1; *colourCounter=-1; *co
 128              		.loc 1 9 22
 129 0088 98C3     		sw	a4,0(a5)
 130              	.L21:
  11:main.c        ****       if(*counter2>-1){*counter2=*counter2+1; if(*counter2==2){*y2=*y2+1;} if(*counter2==1){*x2=*x2
 131              		.loc 1 11 7 is_stmt 1
  11:main.c        ****       if(*counter2>-1){*counter2=*counter2+1; if(*counter2==2){*y2=*y2+1;} if(*counter2==1){*x2=*x2
 132              		.loc 1 11 10 is_stmt 0
 133 008a 9843     		lw	a4,0(a5)
  11:main.c        ****       if(*counter2>-1){*counter2=*counter2+1; if(*counter2==2){*y2=*y2+1;} if(*counter2==1){*x2=*x2
 134              		.loc 1 11 9
 135 008c 631B0760 		bne	a4,zero,.L22
  11:main.c        ****       if(*counter2>-1){*counter2=*counter2+1; if(*counter2==2){*y2=*y2+1;} if(*counter2==1){*x2=*x2
 136              		.loc 1 11 23 discriminator 1
 137 0090 1442     		lw	a3,0(a2)
 138              	.LVL20:
 139 0092 7D57     		li	a4,-1
 140 0094 E388E600 		beq	a3,a4,.L173
 141              	.LVL21:
 142              	.L24:
  12:main.c        ****       if(*colourCounter==0){*colourchoice=*colourchoice+0;} return; 
 143              		.loc 1 12 7 is_stmt 1
  12:main.c        ****       if(*colourCounter==0){*colourchoice=*colourchoice+0;} return; 
 144              		.loc 1 12 10 is_stmt 0
 145 0098 83270800 		lw	a5,0(a6)
  12:main.c        ****       if(*colourCounter==0){*colourchoice=*colourchoice+0;} return; 
 146              		.loc 1 12 9
 147 009c E3CC07F8 		blt	a5,zero,.L1
  12:main.c        ****       if(*colourCounter==0){*colourchoice=*colourchoice+0;} return; 
 148              		.loc 1 12 24 is_stmt 1 discriminator 1
  12:main.c        ****       if(*colourCounter==0){*colourchoice=*colourchoice+0;} return; 
 149              		.loc 1 12 43 is_stmt 0 discriminator 1
 150 00a0 8507     		addi	a5,a5,1
  12:main.c        ****       if(*colourCounter==0){*colourchoice=*colourchoice+0;} return; 
 151              		.loc 1 12 33 discriminator 1
 152 00a2 2320F800 		sw	a5,0(a6)
  12:main.c        ****       if(*colourCounter==0){*colourchoice=*colourchoice+0;} return; 
 153              		.loc 1 12 47 is_stmt 1 discriminator 1
  12:main.c        ****       if(*colourCounter==0){*colourchoice=*colourchoice+0;} return; 
 154              		.loc 1 12 49 is_stmt 0 discriminator 1
 155 00a6 0947     		li	a4,2
 156 00a8 6397E700 		bne	a5,a4,.L31
  12:main.c        ****       if(*colourCounter==0){*colourchoice=*colourchoice+0;} return; 
 157              		.loc 1 12 64 is_stmt 1 discriminator 2
  12:main.c        ****       if(*colourCounter==0){*colourchoice=*colourchoice+0;} return; 
 158              		.loc 1 12 71 is_stmt 0 discriminator 2
 159 00ac 9C41     		lw	a5,0(a1)
 160 00ae 8507     		addi	a5,a5,1
  12:main.c        ****       if(*colourCounter==0){*colourchoice=*colourchoice+0;} return; 
 161              		.loc 1 12 67 discriminator 2
 162 00b0 9CC1     		sw	a5,0(a1)
 163 00b2 83270800 		lw	a5,0(a6)
 164              	.L31:
  12:main.c        ****       if(*colourCounter==0){*colourchoice=*colourchoice+0;} return; 
 165              		.loc 1 12 76 is_stmt 1 discriminator 4
GAS LISTING C:\Users\GTSAIN~1\AppData\Local\Temp\ccIslvt7.s 			page 6


  12:main.c        ****       if(*colourCounter==0){*colourchoice=*colourchoice+0;} return; 
 166              		.loc 1 12 78 is_stmt 0 discriminator 4
 167 00b6 0547     		li	a4,1
 168 00b8 E39EE7F6 		bne	a5,a4,.L1
  12:main.c        ****       if(*colourCounter==0){*colourchoice=*colourchoice+0;} return; 
 169              		.loc 1 12 93 is_stmt 1 discriminator 5
  12:main.c        ****       if(*colourCounter==0){*colourchoice=*colourchoice+0;} return; 
 170              		.loc 1 12 100 is_stmt 0 discriminator 5
 171 00bc 1C42     		lw	a5,0(a2)
 172 00be 8507     		addi	a5,a5,1
  12:main.c        ****       if(*colourCounter==0){*colourchoice=*colourchoice+0;} return; 
 173              		.loc 1 12 96 discriminator 5
 174 00c0 1CC2     		sw	a5,0(a2)
 175 00c2 8280     		ret
 176              	.LVL22:
 177              	.L18:
  15:main.c        ****       if(*counter1==5){*counter1=0;*x1=-1;*y1=-1;*counter2=-1;*x2=-1;*y2=-1; *colourCounter=-1; *co
 178              		.loc 1 15 13 is_stmt 1
  15:main.c        ****       if(*counter1==5){*counter1=0;*x1=-1;*y1=-1;*counter2=-1;*x2=-1;*y2=-1; *colourCounter=-1; *co
 179              		.loc 1 15 32 is_stmt 0
 180 00c4 9843     		lw	a4,0(a5)
  16:main.c        ****       if(*counter1==0 && *x2==-1 || *counter1==2 && *x1==-1){*x1=*x1+17;} if(*counter1==1 && *y2==-
 181              		.loc 1 16 9
 182 00c6 1545     		li	a0,5
  15:main.c        ****       if(*counter1==5){*counter1=0;*x1=-1;*y1=-1;*counter2=-1;*x2=-1;*y2=-1; *colourCounter=-1; *co
 183              		.loc 1 15 32
 184 00c8 0507     		addi	a4,a4,1
  16:main.c        ****       if(*counter1==0 && *x2==-1 || *counter1==2 && *x1==-1){*x1=*x1+17;} if(*counter1==1 && *y2==-
 185              		.loc 1 16 7 is_stmt 1
  16:main.c        ****       if(*counter1==0 && *x2==-1 || *counter1==2 && *x1==-1){*x1=*x1+17;} if(*counter1==1 && *y2==-
 186              		.loc 1 16 9 is_stmt 0
 187 00ca 6307A736 		beq	a4,a0,.L33
  15:main.c        ****       if(*counter1==5){*counter1=0;*x1=-1;*y1=-1;*counter2=-1;*x2=-1;*y2=-1; *colourCounter=-1; *co
 188              		.loc 1 15 22
 189 00ce 98C3     		sw	a4,0(a5)
 190              	.L34:
  17:main.c        ****       if(*counter2>-1){*counter2=*counter2+1; if(*counter2==2){*y2=*y2+9;} if(*counter2==1){*x2=*x2
 191              		.loc 1 17 7 is_stmt 1
  17:main.c        ****       if(*counter2>-1){*counter2=*counter2+1; if(*counter2==2){*y2=*y2+9;} if(*counter2==1){*x2=*x2
 192              		.loc 1 17 10 is_stmt 0
 193 00d0 9843     		lw	a4,0(a5)
  17:main.c        ****       if(*counter2>-1){*counter2=*counter2+1; if(*counter2==2){*y2=*y2+9;} if(*counter2==1){*x2=*x2
 194              		.loc 1 17 9
 195 00d2 6311076A 		bne	a4,zero,.L35
  17:main.c        ****       if(*counter2>-1){*counter2=*counter2+1; if(*counter2==2){*y2=*y2+9;} if(*counter2==1){*x2=*x2
 196              		.loc 1 17 23 discriminator 1
 197 00d6 0842     		lw	a0,0(a2)
 198 00d8 7D57     		li	a4,-1
 199 00da 6307E57E 		beq	a0,a4,.L174
 200              	.LVL23:
 201              	.L37:
  18:main.c        ****       if(*colourCounter==0){*colourchoice=*colourchoice+1;} return; 
 202              		.loc 1 18 7 is_stmt 1
  18:main.c        ****       if(*colourCounter==0){*colourchoice=*colourchoice+1;} return; 
 203              		.loc 1 18 10 is_stmt 0
 204 00de 83270800 		lw	a5,0(a6)
  18:main.c        ****       if(*colourCounter==0){*colourchoice=*colourchoice+1;} return; 
GAS LISTING C:\Users\GTSAIN~1\AppData\Local\Temp\ccIslvt7.s 			page 7


 205              		.loc 1 18 9
 206 00e2 63C30702 		blt	a5,zero,.L44
  18:main.c        ****       if(*colourCounter==0){*colourchoice=*colourchoice+1;} return; 
 207              		.loc 1 18 24 is_stmt 1 discriminator 1
  18:main.c        ****       if(*colourCounter==0){*colourchoice=*colourchoice+1;} return; 
 208              		.loc 1 18 43 is_stmt 0 discriminator 1
 209 00e6 8507     		addi	a5,a5,1
  18:main.c        ****       if(*colourCounter==0){*colourchoice=*colourchoice+1;} return; 
 210              		.loc 1 18 33 discriminator 1
 211 00e8 2320F800 		sw	a5,0(a6)
  18:main.c        ****       if(*colourCounter==0){*colourchoice=*colourchoice+1;} return; 
 212              		.loc 1 18 47 is_stmt 1 discriminator 1
  18:main.c        ****       if(*colourCounter==0){*colourchoice=*colourchoice+1;} return; 
 213              		.loc 1 18 49 is_stmt 0 discriminator 1
 214 00ec 0947     		li	a4,2
 215 00ee 6397E700 		bne	a5,a4,.L45
  18:main.c        ****       if(*colourCounter==0){*colourchoice=*colourchoice+1;} return; 
 216              		.loc 1 18 64 is_stmt 1 discriminator 2
  18:main.c        ****       if(*colourCounter==0){*colourchoice=*colourchoice+1;} return; 
 217              		.loc 1 18 71 is_stmt 0 discriminator 2
 218 00f2 9C41     		lw	a5,0(a1)
 219 00f4 A507     		addi	a5,a5,9
  18:main.c        ****       if(*colourCounter==0){*colourchoice=*colourchoice+1;} return; 
 220              		.loc 1 18 67 discriminator 2
 221 00f6 9CC1     		sw	a5,0(a1)
 222 00f8 83270800 		lw	a5,0(a6)
 223              	.L45:
  18:main.c        ****       if(*colourCounter==0){*colourchoice=*colourchoice+1;} return; 
 224              		.loc 1 18 76 is_stmt 1 discriminator 4
  18:main.c        ****       if(*colourCounter==0){*colourchoice=*colourchoice+1;} return; 
 225              		.loc 1 18 78 is_stmt 0 discriminator 4
 226 00fc 0547     		li	a4,1
 227 00fe 6395E700 		bne	a5,a4,.L44
  18:main.c        ****       if(*colourCounter==0){*colourchoice=*colourchoice+1;} return; 
 228              		.loc 1 18 93 is_stmt 1 discriminator 5
  18:main.c        ****       if(*colourCounter==0){*colourchoice=*colourchoice+1;} return; 
 229              		.loc 1 18 100 is_stmt 0 discriminator 5
 230 0102 1C42     		lw	a5,0(a2)
 231 0104 C507     		addi	a5,a5,17
  18:main.c        ****       if(*colourCounter==0){*colourchoice=*colourchoice+1;} return; 
 232              		.loc 1 18 96 discriminator 5
 233 0106 1CC2     		sw	a5,0(a2)
 234              	.L44:
  19:main.c        **** 
 235              		.loc 1 19 7 is_stmt 1
  19:main.c        **** 
 236              		.loc 1 19 9 is_stmt 0
 237 0108 83A70800 		lw	a5,0(a7)
 238 010c 85F7     		bne	a5,zero,.L1
  19:main.c        **** 
 239              		.loc 1 19 29 is_stmt 1 discriminator 1
  19:main.c        **** 
 240              		.loc 1 19 56 is_stmt 0 discriminator 1
 241 010e 9C42     		lw	a5,0(a3)
 242 0110 8507     		addi	a5,a5,1
  19:main.c        **** 
 243              		.loc 1 19 42 discriminator 1
GAS LISTING C:\Users\GTSAIN~1\AppData\Local\Temp\ccIslvt7.s 			page 8


 244 0112 9CC2     		sw	a5,0(a3)
 245 0114 8280     		ret
 246              	.LVL24:
 247              	.L17:
  21:main.c        ****       if(*counter1==5){*counter1=0;*x1=-1;*y1=-1;*counter2=-1;*x2=-1;*y2=-1; *colourCounter=-1; *co
 248              		.loc 1 21 13 is_stmt 1
  21:main.c        ****       if(*counter1==5){*counter1=0;*x1=-1;*y1=-1;*counter2=-1;*x2=-1;*y2=-1; *colourCounter=-1; *co
 249              		.loc 1 21 32 is_stmt 0
 250 0116 9843     		lw	a4,0(a5)
  22:main.c        ****       if(*counter1==0 && *x2==-1 || *counter1==2 && *x1==-1){*x1=*x1+33;} if(*counter1==1 && *y2==-
 251              		.loc 1 22 9
 252 0118 1545     		li	a0,5
  21:main.c        ****       if(*counter1==5){*counter1=0;*x1=-1;*y1=-1;*counter2=-1;*x2=-1;*y2=-1; *colourCounter=-1; *co
 253              		.loc 1 21 32
 254 011a 0507     		addi	a4,a4,1
  22:main.c        ****       if(*counter1==0 && *x2==-1 || *counter1==2 && *x1==-1){*x1=*x1+33;} if(*counter1==1 && *y2==-
 255              		.loc 1 22 7 is_stmt 1
  22:main.c        ****       if(*counter1==0 && *x2==-1 || *counter1==2 && *x1==-1){*x1=*x1+33;} if(*counter1==1 && *y2==-
 256              		.loc 1 22 9 is_stmt 0
 257 011c 6308A73C 		beq	a4,a0,.L47
  21:main.c        ****       if(*counter1==5){*counter1=0;*x1=-1;*y1=-1;*counter2=-1;*x2=-1;*y2=-1; *colourCounter=-1; *co
 258              		.loc 1 21 22
 259 0120 98C3     		sw	a4,0(a5)
 260              	.L48:
  23:main.c        ****       if(*counter2>-1){*counter2=*counter2+1; if(*counter2==2){*y2=*y2+17;} if(*counter2==1){*x2=*x
 261              		.loc 1 23 7 is_stmt 1
  23:main.c        ****       if(*counter2>-1){*counter2=*counter2+1; if(*counter2==2){*y2=*y2+17;} if(*counter2==1){*x2=*x
 262              		.loc 1 23 10 is_stmt 0
 263 0122 9843     		lw	a4,0(a5)
  23:main.c        ****       if(*counter2>-1){*counter2=*counter2+1; if(*counter2==2){*y2=*y2+17;} if(*counter2==1){*x2=*x
 264              		.loc 1 23 9
 265 0124 631E0760 		bne	a4,zero,.L49
  23:main.c        ****       if(*counter2>-1){*counter2=*counter2+1; if(*counter2==2){*y2=*y2+17;} if(*counter2==1){*x2=*x
 266              		.loc 1 23 23 discriminator 1
 267 0128 0842     		lw	a0,0(a2)
 268 012a 7D57     		li	a4,-1
 269 012c 6302E578 		beq	a0,a4,.L175
 270              	.LVL25:
 271              	.L51:
  24:main.c        ****       if(*colourCounter==0){*colourchoice=*colourchoice+2;} return; 
 272              		.loc 1 24 7 is_stmt 1
  24:main.c        ****       if(*colourCounter==0){*colourchoice=*colourchoice+2;} return; 
 273              		.loc 1 24 10 is_stmt 0
 274 0130 83270800 		lw	a5,0(a6)
  24:main.c        ****       if(*colourCounter==0){*colourchoice=*colourchoice+2;} return; 
 275              		.loc 1 24 9
 276 0134 63C40702 		blt	a5,zero,.L58
  24:main.c        ****       if(*colourCounter==0){*colourchoice=*colourchoice+2;} return; 
 277              		.loc 1 24 24 is_stmt 1 discriminator 1
  24:main.c        ****       if(*colourCounter==0){*colourchoice=*colourchoice+2;} return; 
 278              		.loc 1 24 43 is_stmt 0 discriminator 1
 279 0138 8507     		addi	a5,a5,1
  24:main.c        ****       if(*colourCounter==0){*colourchoice=*colourchoice+2;} return; 
 280              		.loc 1 24 33 discriminator 1
 281 013a 2320F800 		sw	a5,0(a6)
  24:main.c        ****       if(*colourCounter==0){*colourchoice=*colourchoice+2;} return; 
 282              		.loc 1 24 47 is_stmt 1 discriminator 1
GAS LISTING C:\Users\GTSAIN~1\AppData\Local\Temp\ccIslvt7.s 			page 9


  24:main.c        ****       if(*colourCounter==0){*colourchoice=*colourchoice+2;} return; 
 283              		.loc 1 24 49 is_stmt 0 discriminator 1
 284 013e 0947     		li	a4,2
 285 0140 6397E700 		bne	a5,a4,.L59
  24:main.c        ****       if(*colourCounter==0){*colourchoice=*colourchoice+2;} return; 
 286              		.loc 1 24 64 is_stmt 1 discriminator 2
  24:main.c        ****       if(*colourCounter==0){*colourchoice=*colourchoice+2;} return; 
 287              		.loc 1 24 71 is_stmt 0 discriminator 2
 288 0144 9C41     		lw	a5,0(a1)
 289 0146 C507     		addi	a5,a5,17
  24:main.c        ****       if(*colourCounter==0){*colourchoice=*colourchoice+2;} return; 
 290              		.loc 1 24 67 discriminator 2
 291 0148 9CC1     		sw	a5,0(a1)
 292 014a 83270800 		lw	a5,0(a6)
 293              	.L59:
  24:main.c        ****       if(*colourCounter==0){*colourchoice=*colourchoice+2;} return; 
 294              		.loc 1 24 77 is_stmt 1 discriminator 4
  24:main.c        ****       if(*colourCounter==0){*colourchoice=*colourchoice+2;} return; 
 295              		.loc 1 24 79 is_stmt 0 discriminator 4
 296 014e 0547     		li	a4,1
 297 0150 6396E700 		bne	a5,a4,.L58
  24:main.c        ****       if(*colourCounter==0){*colourchoice=*colourchoice+2;} return; 
 298              		.loc 1 24 94 is_stmt 1 discriminator 5
  24:main.c        ****       if(*colourCounter==0){*colourchoice=*colourchoice+2;} return; 
 299              		.loc 1 24 101 is_stmt 0 discriminator 5
 300 0154 1C42     		lw	a5,0(a2)
 301 0156 93871702 		addi	a5,a5,33
  24:main.c        ****       if(*colourCounter==0){*colourchoice=*colourchoice+2;} return; 
 302              		.loc 1 24 97 discriminator 5
 303 015a 1CC2     		sw	a5,0(a2)
 304              	.L58:
  25:main.c        **** 
 305              		.loc 1 25 7 is_stmt 1
  25:main.c        **** 
 306              		.loc 1 25 9 is_stmt 0
 307 015c 83A70800 		lw	a5,0(a7)
 308 0160 E39A07EC 		bne	a5,zero,.L1
  25:main.c        **** 
 309              		.loc 1 25 29 is_stmt 1 discriminator 1
  25:main.c        **** 
 310              		.loc 1 25 56 is_stmt 0 discriminator 1
 311 0164 9C42     		lw	a5,0(a3)
 312 0166 8907     		addi	a5,a5,2
  25:main.c        **** 
 313              		.loc 1 25 42 discriminator 1
 314 0168 9CC2     		sw	a5,0(a3)
 315 016a 8280     		ret
 316              	.LVL26:
 317              	.L16:
  27:main.c        ****       if(*counter1==5){*counter1=0;*x1=-1;*y1=-1;*counter2=-1;*x2=-1;*y2=-1; *colourCounter=-1; *co
 318              		.loc 1 27 13 is_stmt 1
  27:main.c        ****       if(*counter1==5){*counter1=0;*x1=-1;*y1=-1;*counter2=-1;*x2=-1;*y2=-1; *colourCounter=-1; *co
 319              		.loc 1 27 32 is_stmt 0
 320 016c 9843     		lw	a4,0(a5)
  28:main.c        ****       if(*counter1==0 && *x2==-1 || *counter1==2 && *x1==-1){*x1=*x1+49;} if(*counter1==1 && *y2==-
 321              		.loc 1 28 9
 322 016e 1545     		li	a0,5
GAS LISTING C:\Users\GTSAIN~1\AppData\Local\Temp\ccIslvt7.s 			page 10


  27:main.c        ****       if(*counter1==5){*counter1=0;*x1=-1;*y1=-1;*counter2=-1;*x2=-1;*y2=-1; *colourCounter=-1; *co
 323              		.loc 1 27 32
 324 0170 0507     		addi	a4,a4,1
  28:main.c        ****       if(*counter1==0 && *x2==-1 || *counter1==2 && *x1==-1){*x1=*x1+49;} if(*counter1==1 && *y2==-
 325              		.loc 1 28 7 is_stmt 1
  28:main.c        ****       if(*counter1==0 && *x2==-1 || *counter1==2 && *x1==-1){*x1=*x1+49;} if(*counter1==1 && *y2==-
 326              		.loc 1 28 9 is_stmt 0
 327 0172 6305A72E 		beq	a4,a0,.L61
  27:main.c        ****       if(*counter1==5){*counter1=0;*x1=-1;*y1=-1;*counter2=-1;*x2=-1;*y2=-1; *colourCounter=-1; *co
 328              		.loc 1 27 22
 329 0176 98C3     		sw	a4,0(a5)
 330              	.L62:
  29:main.c        ****       if(*counter2>-1){*counter2=*counter2+1; if(*counter2==2){*y2=*y2+25;} if(*counter2==1){*x2=*x
 331              		.loc 1 29 7 is_stmt 1
  29:main.c        ****       if(*counter2>-1){*counter2=*counter2+1; if(*counter2==2){*y2=*y2+25;} if(*counter2==1){*x2=*x
 332              		.loc 1 29 10 is_stmt 0
 333 0178 9843     		lw	a4,0(a5)
  29:main.c        ****       if(*counter2>-1){*counter2=*counter2+1; if(*counter2==2){*y2=*y2+25;} if(*counter2==1){*x2=*x
 334              		.loc 1 29 9
 335 017a 63160762 		bne	a4,zero,.L63
  29:main.c        ****       if(*counter2>-1){*counter2=*counter2+1; if(*counter2==2){*y2=*y2+25;} if(*counter2==1){*x2=*x
 336              		.loc 1 29 23 discriminator 1
 337 017e 0842     		lw	a0,0(a2)
 338 0180 7D57     		li	a4,-1
 339 0182 6306E574 		beq	a0,a4,.L176
 340              	.LVL27:
 341              	.L65:
  30:main.c        ****       if(*colourCounter==0){*colourchoice=*colourchoice+3;} return; 
 342              		.loc 1 30 7 is_stmt 1
  30:main.c        ****       if(*colourCounter==0){*colourchoice=*colourchoice+3;} return; 
 343              		.loc 1 30 10 is_stmt 0
 344 0186 83270800 		lw	a5,0(a6)
  30:main.c        ****       if(*colourCounter==0){*colourchoice=*colourchoice+3;} return; 
 345              		.loc 1 30 9
 346 018a 63C40702 		blt	a5,zero,.L72
  30:main.c        ****       if(*colourCounter==0){*colourchoice=*colourchoice+3;} return; 
 347              		.loc 1 30 24 is_stmt 1 discriminator 1
  30:main.c        ****       if(*colourCounter==0){*colourchoice=*colourchoice+3;} return; 
 348              		.loc 1 30 43 is_stmt 0 discriminator 1
 349 018e 8507     		addi	a5,a5,1
  30:main.c        ****       if(*colourCounter==0){*colourchoice=*colourchoice+3;} return; 
 350              		.loc 1 30 33 discriminator 1
 351 0190 2320F800 		sw	a5,0(a6)
  30:main.c        ****       if(*colourCounter==0){*colourchoice=*colourchoice+3;} return; 
 352              		.loc 1 30 47 is_stmt 1 discriminator 1
  30:main.c        ****       if(*colourCounter==0){*colourchoice=*colourchoice+3;} return; 
 353              		.loc 1 30 49 is_stmt 0 discriminator 1
 354 0194 0947     		li	a4,2
 355 0196 6397E700 		bne	a5,a4,.L73
  30:main.c        ****       if(*colourCounter==0){*colourchoice=*colourchoice+3;} return; 
 356              		.loc 1 30 64 is_stmt 1 discriminator 2
  30:main.c        ****       if(*colourCounter==0){*colourchoice=*colourchoice+3;} return; 
 357              		.loc 1 30 71 is_stmt 0 discriminator 2
 358 019a 9C41     		lw	a5,0(a1)
 359 019c E507     		addi	a5,a5,25
  30:main.c        ****       if(*colourCounter==0){*colourchoice=*colourchoice+3;} return; 
 360              		.loc 1 30 67 discriminator 2
GAS LISTING C:\Users\GTSAIN~1\AppData\Local\Temp\ccIslvt7.s 			page 11


 361 019e 9CC1     		sw	a5,0(a1)
 362 01a0 83270800 		lw	a5,0(a6)
 363              	.L73:
  30:main.c        ****       if(*colourCounter==0){*colourchoice=*colourchoice+3;} return; 
 364              		.loc 1 30 77 is_stmt 1 discriminator 4
  30:main.c        ****       if(*colourCounter==0){*colourchoice=*colourchoice+3;} return; 
 365              		.loc 1 30 79 is_stmt 0 discriminator 4
 366 01a4 0547     		li	a4,1
 367 01a6 6396E700 		bne	a5,a4,.L72
  30:main.c        ****       if(*colourCounter==0){*colourchoice=*colourchoice+3;} return; 
 368              		.loc 1 30 94 is_stmt 1 discriminator 5
  30:main.c        ****       if(*colourCounter==0){*colourchoice=*colourchoice+3;} return; 
 369              		.loc 1 30 101 is_stmt 0 discriminator 5
 370 01aa 1C42     		lw	a5,0(a2)
 371 01ac 93871703 		addi	a5,a5,49
  30:main.c        ****       if(*colourCounter==0){*colourchoice=*colourchoice+3;} return; 
 372              		.loc 1 30 97 discriminator 5
 373 01b0 1CC2     		sw	a5,0(a2)
 374              	.L72:
  31:main.c        **** 
 375              		.loc 1 31 7 is_stmt 1
  31:main.c        **** 
 376              		.loc 1 31 9 is_stmt 0
 377 01b2 83A70800 		lw	a5,0(a7)
 378 01b6 E39F07E6 		bne	a5,zero,.L1
  31:main.c        **** 
 379              		.loc 1 31 29 is_stmt 1 discriminator 1
  31:main.c        **** 
 380              		.loc 1 31 56 is_stmt 0 discriminator 1
 381 01ba 9C42     		lw	a5,0(a3)
 382 01bc 8D07     		addi	a5,a5,3
  31:main.c        **** 
 383              		.loc 1 31 42 discriminator 1
 384 01be 9CC2     		sw	a5,0(a3)
 385 01c0 8280     		ret
 386              	.LVL28:
 387              	.L15:
  33:main.c        ****       if(*counter1==5){*counter1=0;*x1=-1;*y1=-1;*counter2=-1;*x2=-1;*y2=-1; *colourCounter=-1; *co
 388              		.loc 1 33 13 is_stmt 1
  33:main.c        ****       if(*counter1==5){*counter1=0;*x1=-1;*y1=-1;*counter2=-1;*x2=-1;*y2=-1; *colourCounter=-1; *co
 389              		.loc 1 33 32 is_stmt 0
 390 01c2 9843     		lw	a4,0(a5)
  34:main.c        ****       if(*counter1==0 && *x2==-1 || *counter1==2 && *x1==-1){*x1=*x1+65;} if(*counter1==1 && *y2==-
 391              		.loc 1 34 9
 392 01c4 1545     		li	a0,5
  33:main.c        ****       if(*counter1==5){*counter1=0;*x1=-1;*y1=-1;*counter2=-1;*x2=-1;*y2=-1; *colourCounter=-1; *co
 393              		.loc 1 33 32
 394 01c6 0507     		addi	a4,a4,1
  34:main.c        ****       if(*counter1==0 && *x2==-1 || *counter1==2 && *x1==-1){*x1=*x1+65;} if(*counter1==1 && *y2==-
 395              		.loc 1 34 7 is_stmt 1
  34:main.c        ****       if(*counter1==0 && *x2==-1 || *counter1==2 && *x1==-1){*x1=*x1+65;} if(*counter1==1 && *y2==-
 396              		.loc 1 34 9 is_stmt 0
 397 01c8 630CA72A 		beq	a4,a0,.L75
  33:main.c        ****       if(*counter1==5){*counter1=0;*x1=-1;*y1=-1;*counter2=-1;*x2=-1;*y2=-1; *colourCounter=-1; *co
 398              		.loc 1 33 22
 399 01cc 98C3     		sw	a4,0(a5)
 400              	.L76:
GAS LISTING C:\Users\GTSAIN~1\AppData\Local\Temp\ccIslvt7.s 			page 12


  35:main.c        ****       if(*counter2>-1){*counter2=*counter2+1; if(*counter2==2){*y2=*y2+33;} if(*counter2==1){*x2=*x
 401              		.loc 1 35 7 is_stmt 1
  35:main.c        ****       if(*counter2>-1){*counter2=*counter2+1; if(*counter2==2){*y2=*y2+33;} if(*counter2==1){*x2=*x
 402              		.loc 1 35 10 is_stmt 0
 403 01ce 9843     		lw	a4,0(a5)
  35:main.c        ****       if(*counter2>-1){*counter2=*counter2+1; if(*counter2==2){*y2=*y2+33;} if(*counter2==1){*x2=*x
 404              		.loc 1 35 9
 405 01d0 631E0748 		bne	a4,zero,.L77
  35:main.c        ****       if(*counter2>-1){*counter2=*counter2+1; if(*counter2==2){*y2=*y2+33;} if(*counter2==1){*x2=*x
 406              		.loc 1 35 23 discriminator 1
 407 01d4 0842     		lw	a0,0(a2)
 408 01d6 7D57     		li	a4,-1
 409 01d8 6305E56E 		beq	a0,a4,.L177
 410              	.LVL29:
 411              	.L79:
  36:main.c        ****       if(*colourCounter==0){*colourchoice=*colourchoice+4;} return; 
 412              		.loc 1 36 7 is_stmt 1
  36:main.c        ****       if(*colourCounter==0){*colourchoice=*colourchoice+4;} return; 
 413              		.loc 1 36 10 is_stmt 0
 414 01dc 83270800 		lw	a5,0(a6)
  36:main.c        ****       if(*colourCounter==0){*colourchoice=*colourchoice+4;} return; 
 415              		.loc 1 36 9
 416 01e0 63C50702 		blt	a5,zero,.L86
  36:main.c        ****       if(*colourCounter==0){*colourchoice=*colourchoice+4;} return; 
 417              		.loc 1 36 24 is_stmt 1 discriminator 1
  36:main.c        ****       if(*colourCounter==0){*colourchoice=*colourchoice+4;} return; 
 418              		.loc 1 36 43 is_stmt 0 discriminator 1
 419 01e4 8507     		addi	a5,a5,1
  36:main.c        ****       if(*colourCounter==0){*colourchoice=*colourchoice+4;} return; 
 420              		.loc 1 36 33 discriminator 1
 421 01e6 2320F800 		sw	a5,0(a6)
  36:main.c        ****       if(*colourCounter==0){*colourchoice=*colourchoice+4;} return; 
 422              		.loc 1 36 47 is_stmt 1 discriminator 1
  36:main.c        ****       if(*colourCounter==0){*colourchoice=*colourchoice+4;} return; 
 423              		.loc 1 36 49 is_stmt 0 discriminator 1
 424 01ea 0947     		li	a4,2
 425 01ec 6398E700 		bne	a5,a4,.L87
  36:main.c        ****       if(*colourCounter==0){*colourchoice=*colourchoice+4;} return; 
 426              		.loc 1 36 64 is_stmt 1 discriminator 2
  36:main.c        ****       if(*colourCounter==0){*colourchoice=*colourchoice+4;} return; 
 427              		.loc 1 36 71 is_stmt 0 discriminator 2
 428 01f0 9C41     		lw	a5,0(a1)
 429 01f2 93871702 		addi	a5,a5,33
  36:main.c        ****       if(*colourCounter==0){*colourchoice=*colourchoice+4;} return; 
 430              		.loc 1 36 67 discriminator 2
 431 01f6 9CC1     		sw	a5,0(a1)
 432 01f8 83270800 		lw	a5,0(a6)
 433              	.L87:
  36:main.c        ****       if(*colourCounter==0){*colourchoice=*colourchoice+4;} return; 
 434              		.loc 1 36 77 is_stmt 1 discriminator 4
  36:main.c        ****       if(*colourCounter==0){*colourchoice=*colourchoice+4;} return; 
 435              		.loc 1 36 79 is_stmt 0 discriminator 4
 436 01fc 0547     		li	a4,1
 437 01fe 6396E700 		bne	a5,a4,.L86
  36:main.c        ****       if(*colourCounter==0){*colourchoice=*colourchoice+4;} return; 
 438              		.loc 1 36 94 is_stmt 1 discriminator 5
  36:main.c        ****       if(*colourCounter==0){*colourchoice=*colourchoice+4;} return; 
GAS LISTING C:\Users\GTSAIN~1\AppData\Local\Temp\ccIslvt7.s 			page 13


 439              		.loc 1 36 101 is_stmt 0 discriminator 5
 440 0202 1C42     		lw	a5,0(a2)
 441 0204 93871704 		addi	a5,a5,65
  36:main.c        ****       if(*colourCounter==0){*colourchoice=*colourchoice+4;} return; 
 442              		.loc 1 36 97 discriminator 5
 443 0208 1CC2     		sw	a5,0(a2)
 444              	.L86:
  37:main.c        **** 
 445              		.loc 1 37 7 is_stmt 1
  37:main.c        **** 
 446              		.loc 1 37 9 is_stmt 0
 447 020a 83A70800 		lw	a5,0(a7)
 448 020e E39307E2 		bne	a5,zero,.L1
  37:main.c        **** 
 449              		.loc 1 37 29 is_stmt 1 discriminator 1
  37:main.c        **** 
 450              		.loc 1 37 56 is_stmt 0 discriminator 1
 451 0212 9C42     		lw	a5,0(a3)
 452 0214 9107     		addi	a5,a5,4
  37:main.c        **** 
 453              		.loc 1 37 42 discriminator 1
 454 0216 9CC2     		sw	a5,0(a3)
 455 0218 8280     		ret
 456              	.LVL30:
 457              	.L14:
  39:main.c        ****       if(*counter1==5){*counter1=0;*x1=-1;*y1=-1;*counter2=-1;*x2=-1;*y2=-1; *colourCounter=-1; *co
 458              		.loc 1 39 13 is_stmt 1
  39:main.c        ****       if(*counter1==5){*counter1=0;*x1=-1;*y1=-1;*counter2=-1;*x2=-1;*y2=-1; *colourCounter=-1; *co
 459              		.loc 1 39 32 is_stmt 0
 460 021a 9843     		lw	a4,0(a5)
  40:main.c        ****       if(*counter1==0 && *x2==-1 || *counter1==2 && *x1==-1){*x1=*x1+81;} if(*counter1==1 && *y2==-
 461              		.loc 1 40 9
 462 021c 1545     		li	a0,5
  39:main.c        ****       if(*counter1==5){*counter1=0;*x1=-1;*y1=-1;*counter2=-1;*x2=-1;*y2=-1; *colourCounter=-1; *co
 463              		.loc 1 39 32
 464 021e 0507     		addi	a4,a4,1
  40:main.c        ****       if(*counter1==0 && *x2==-1 || *counter1==2 && *x1==-1){*x1=*x1+81;} if(*counter1==1 && *y2==-
 465              		.loc 1 40 7 is_stmt 1
  40:main.c        ****       if(*counter1==0 && *x2==-1 || *counter1==2 && *x1==-1){*x1=*x1+81;} if(*counter1==1 && *y2==-
 466              		.loc 1 40 9 is_stmt 0
 467 0220 6302A728 		beq	a4,a0,.L89
  39:main.c        ****       if(*counter1==5){*counter1=0;*x1=-1;*y1=-1;*counter2=-1;*x2=-1;*y2=-1; *colourCounter=-1; *co
 468              		.loc 1 39 22
 469 0224 98C3     		sw	a4,0(a5)
 470              	.L90:
  41:main.c        ****       if(*counter2>-1){*counter2=*counter2+1; if(*counter2==2){*y2=*y2+41;} if(*counter2==1){*x2=*x
 471              		.loc 1 41 7 is_stmt 1
  41:main.c        ****       if(*counter2>-1){*counter2=*counter2+1; if(*counter2==2){*y2=*y2+41;} if(*counter2==1){*x2=*x
 472              		.loc 1 41 10 is_stmt 0
 473 0226 9843     		lw	a4,0(a5)
  41:main.c        ****       if(*counter2>-1){*counter2=*counter2+1; if(*counter2==2){*y2=*y2+41;} if(*counter2==1){*x2=*x
 474              		.loc 1 41 9
 475 0228 6316074A 		bne	a4,zero,.L91
  41:main.c        ****       if(*counter2>-1){*counter2=*counter2+1; if(*counter2==2){*y2=*y2+41;} if(*counter2==1){*x2=*x
 476              		.loc 1 41 23 discriminator 1
 477 022c 0842     		lw	a0,0(a2)
 478 022e 7D57     		li	a4,-1
GAS LISTING C:\Users\GTSAIN~1\AppData\Local\Temp\ccIslvt7.s 			page 14


 479 0230 630DE566 		beq	a0,a4,.L178
 480              	.LVL31:
 481              	.L93:
  42:main.c        ****       if(*colourCounter==0){*colourchoice=*colourchoice+5;} return; 
 482              		.loc 1 42 7 is_stmt 1
  42:main.c        ****       if(*colourCounter==0){*colourchoice=*colourchoice+5;} return; 
 483              		.loc 1 42 10 is_stmt 0
 484 0234 83270800 		lw	a5,0(a6)
  42:main.c        ****       if(*colourCounter==0){*colourchoice=*colourchoice+5;} return; 
 485              		.loc 1 42 9
 486 0238 63C50702 		blt	a5,zero,.L100
  42:main.c        ****       if(*colourCounter==0){*colourchoice=*colourchoice+5;} return; 
 487              		.loc 1 42 24 is_stmt 1 discriminator 1
  42:main.c        ****       if(*colourCounter==0){*colourchoice=*colourchoice+5;} return; 
 488              		.loc 1 42 43 is_stmt 0 discriminator 1
 489 023c 8507     		addi	a5,a5,1
  42:main.c        ****       if(*colourCounter==0){*colourchoice=*colourchoice+5;} return; 
 490              		.loc 1 42 33 discriminator 1
 491 023e 2320F800 		sw	a5,0(a6)
  42:main.c        ****       if(*colourCounter==0){*colourchoice=*colourchoice+5;} return; 
 492              		.loc 1 42 47 is_stmt 1 discriminator 1
  42:main.c        ****       if(*colourCounter==0){*colourchoice=*colourchoice+5;} return; 
 493              		.loc 1 42 49 is_stmt 0 discriminator 1
 494 0242 0947     		li	a4,2
 495 0244 6398E700 		bne	a5,a4,.L101
  42:main.c        ****       if(*colourCounter==0){*colourchoice=*colourchoice+5;} return; 
 496              		.loc 1 42 64 is_stmt 1 discriminator 2
  42:main.c        ****       if(*colourCounter==0){*colourchoice=*colourchoice+5;} return; 
 497              		.loc 1 42 71 is_stmt 0 discriminator 2
 498 0248 9C41     		lw	a5,0(a1)
 499 024a 93879702 		addi	a5,a5,41
  42:main.c        ****       if(*colourCounter==0){*colourchoice=*colourchoice+5;} return; 
 500              		.loc 1 42 67 discriminator 2
 501 024e 9CC1     		sw	a5,0(a1)
 502 0250 83270800 		lw	a5,0(a6)
 503              	.L101:
  42:main.c        ****       if(*colourCounter==0){*colourchoice=*colourchoice+5;} return; 
 504              		.loc 1 42 77 is_stmt 1 discriminator 4
  42:main.c        ****       if(*colourCounter==0){*colourchoice=*colourchoice+5;} return; 
 505              		.loc 1 42 79 is_stmt 0 discriminator 4
 506 0254 0547     		li	a4,1
 507 0256 6396E700 		bne	a5,a4,.L100
  42:main.c        ****       if(*colourCounter==0){*colourchoice=*colourchoice+5;} return; 
 508              		.loc 1 42 94 is_stmt 1 discriminator 5
  42:main.c        ****       if(*colourCounter==0){*colourchoice=*colourchoice+5;} return; 
 509              		.loc 1 42 101 is_stmt 0 discriminator 5
 510 025a 1C42     		lw	a5,0(a2)
 511 025c 93871705 		addi	a5,a5,81
  42:main.c        ****       if(*colourCounter==0){*colourchoice=*colourchoice+5;} return; 
 512              		.loc 1 42 97 discriminator 5
 513 0260 1CC2     		sw	a5,0(a2)
 514              	.L100:
  43:main.c        **** 
 515              		.loc 1 43 7 is_stmt 1
  43:main.c        **** 
 516              		.loc 1 43 9 is_stmt 0
 517 0262 83A70800 		lw	a5,0(a7)
GAS LISTING C:\Users\GTSAIN~1\AppData\Local\Temp\ccIslvt7.s 			page 15


 518 0266 E39707DC 		bne	a5,zero,.L1
  43:main.c        **** 
 519              		.loc 1 43 29 is_stmt 1 discriminator 1
  43:main.c        **** 
 520              		.loc 1 43 56 is_stmt 0 discriminator 1
 521 026a 9C42     		lw	a5,0(a3)
 522 026c 9507     		addi	a5,a5,5
  43:main.c        **** 
 523              		.loc 1 43 42 discriminator 1
 524 026e 9CC2     		sw	a5,0(a3)
 525 0270 8280     		ret
 526              	.LVL32:
 527              	.L13:
  45:main.c        ****       if(*counter1==5){*counter1=0;*x1=-1;*y1=-1;*counter2=-1;*x2=-1;*y2=-1; *colourCounter=-1; *co
 528              		.loc 1 45 13 is_stmt 1
  45:main.c        ****       if(*counter1==5){*counter1=0;*x1=-1;*y1=-1;*counter2=-1;*x2=-1;*y2=-1; *colourCounter=-1; *co
 529              		.loc 1 45 32 is_stmt 0
 530 0272 9843     		lw	a4,0(a5)
  46:main.c        ****       if(*counter1==0 && *x2==-1 || *counter1==2 && *x1==-1){*x1=*x1+97;} if(*counter1==1 && *y2==-
 531              		.loc 1 46 9
 532 0274 1545     		li	a0,5
  45:main.c        ****       if(*counter1==5){*counter1=0;*x1=-1;*y1=-1;*counter2=-1;*x2=-1;*y2=-1; *colourCounter=-1; *co
 533              		.loc 1 45 32
 534 0276 0507     		addi	a4,a4,1
  46:main.c        ****       if(*counter1==0 && *x2==-1 || *counter1==2 && *x1==-1){*x1=*x1+97;} if(*counter1==1 && *y2==-
 535              		.loc 1 46 7 is_stmt 1
  46:main.c        ****       if(*counter1==0 && *x2==-1 || *counter1==2 && *x1==-1){*x1=*x1+97;} if(*counter1==1 && *y2==-
 536              		.loc 1 46 9 is_stmt 0
 537 0278 630EA72A 		beq	a4,a0,.L103
  45:main.c        ****       if(*counter1==5){*counter1=0;*x1=-1;*y1=-1;*counter2=-1;*x2=-1;*y2=-1; *colourCounter=-1; *co
 538              		.loc 1 45 22
 539 027c 98C3     		sw	a4,0(a5)
 540              	.L104:
  47:main.c        ****       if(*counter2>-1){*counter2=*counter2+1; if(*counter2==2){*y2=*y2+49;} if(*counter2==1){*x2=*x
 541              		.loc 1 47 7 is_stmt 1
  47:main.c        ****       if(*counter2>-1){*counter2=*counter2+1; if(*counter2==2){*y2=*y2+49;} if(*counter2==1){*x2=*x
 542              		.loc 1 47 10 is_stmt 0
 543 027e 9843     		lw	a4,0(a5)
  47:main.c        ****       if(*counter2>-1){*counter2=*counter2+1; if(*counter2==2){*y2=*y2+49;} if(*counter2==1){*x2=*x
 544              		.loc 1 47 9
 545 0280 63100738 		bne	a4,zero,.L105
  47:main.c        ****       if(*counter2>-1){*counter2=*counter2+1; if(*counter2==2){*y2=*y2+49;} if(*counter2==1){*x2=*x
 546              		.loc 1 47 23 discriminator 1
 547 0284 0842     		lw	a0,0(a2)
 548 0286 7D57     		li	a4,-1
 549 0288 630AE562 		beq	a0,a4,.L179
 550              	.LVL33:
 551              	.L107:
  48:main.c        ****       if(*colourCounter==0){*colourchoice=*colourchoice+6;} return; 
 552              		.loc 1 48 7 is_stmt 1
  48:main.c        ****       if(*colourCounter==0){*colourchoice=*colourchoice+6;} return; 
 553              		.loc 1 48 10 is_stmt 0
 554 028c 83270800 		lw	a5,0(a6)
  48:main.c        ****       if(*colourCounter==0){*colourchoice=*colourchoice+6;} return; 
 555              		.loc 1 48 9
 556 0290 63C50702 		blt	a5,zero,.L114
  48:main.c        ****       if(*colourCounter==0){*colourchoice=*colourchoice+6;} return; 
GAS LISTING C:\Users\GTSAIN~1\AppData\Local\Temp\ccIslvt7.s 			page 16


 557              		.loc 1 48 24 is_stmt 1 discriminator 1
  48:main.c        ****       if(*colourCounter==0){*colourchoice=*colourchoice+6;} return; 
 558              		.loc 1 48 43 is_stmt 0 discriminator 1
 559 0294 8507     		addi	a5,a5,1
  48:main.c        ****       if(*colourCounter==0){*colourchoice=*colourchoice+6;} return; 
 560              		.loc 1 48 33 discriminator 1
 561 0296 2320F800 		sw	a5,0(a6)
  48:main.c        ****       if(*colourCounter==0){*colourchoice=*colourchoice+6;} return; 
 562              		.loc 1 48 47 is_stmt 1 discriminator 1
  48:main.c        ****       if(*colourCounter==0){*colourchoice=*colourchoice+6;} return; 
 563              		.loc 1 48 49 is_stmt 0 discriminator 1
 564 029a 0947     		li	a4,2
 565 029c 6398E700 		bne	a5,a4,.L115
  48:main.c        ****       if(*colourCounter==0){*colourchoice=*colourchoice+6;} return; 
 566              		.loc 1 48 64 is_stmt 1 discriminator 2
  48:main.c        ****       if(*colourCounter==0){*colourchoice=*colourchoice+6;} return; 
 567              		.loc 1 48 71 is_stmt 0 discriminator 2
 568 02a0 9C41     		lw	a5,0(a1)
 569 02a2 93871703 		addi	a5,a5,49
  48:main.c        ****       if(*colourCounter==0){*colourchoice=*colourchoice+6;} return; 
 570              		.loc 1 48 67 discriminator 2
 571 02a6 9CC1     		sw	a5,0(a1)
 572 02a8 83270800 		lw	a5,0(a6)
 573              	.L115:
  48:main.c        ****       if(*colourCounter==0){*colourchoice=*colourchoice+6;} return; 
 574              		.loc 1 48 77 is_stmt 1 discriminator 4
  48:main.c        ****       if(*colourCounter==0){*colourchoice=*colourchoice+6;} return; 
 575              		.loc 1 48 79 is_stmt 0 discriminator 4
 576 02ac 0547     		li	a4,1
 577 02ae 6396E700 		bne	a5,a4,.L114
  48:main.c        ****       if(*colourCounter==0){*colourchoice=*colourchoice+6;} return; 
 578              		.loc 1 48 94 is_stmt 1 discriminator 5
  48:main.c        ****       if(*colourCounter==0){*colourchoice=*colourchoice+6;} return; 
 579              		.loc 1 48 101 is_stmt 0 discriminator 5
 580 02b2 1C42     		lw	a5,0(a2)
 581 02b4 93871706 		addi	a5,a5,97
  48:main.c        ****       if(*colourCounter==0){*colourchoice=*colourchoice+6;} return; 
 582              		.loc 1 48 97 discriminator 5
 583 02b8 1CC2     		sw	a5,0(a2)
 584              	.L114:
  49:main.c        **** 
 585              		.loc 1 49 7 is_stmt 1
  49:main.c        **** 
 586              		.loc 1 49 9 is_stmt 0
 587 02ba 83A70800 		lw	a5,0(a7)
 588 02be E39B07D6 		bne	a5,zero,.L1
  49:main.c        **** 
 589              		.loc 1 49 29 is_stmt 1 discriminator 1
  49:main.c        **** 
 590              		.loc 1 49 56 is_stmt 0 discriminator 1
 591 02c2 9C42     		lw	a5,0(a3)
 592 02c4 9907     		addi	a5,a5,6
  49:main.c        **** 
 593              		.loc 1 49 42 discriminator 1
 594 02c6 9CC2     		sw	a5,0(a3)
 595 02c8 8280     		ret
 596              	.LVL34:
GAS LISTING C:\Users\GTSAIN~1\AppData\Local\Temp\ccIslvt7.s 			page 17


 597              	.L12:
  51:main.c        ****       if(*counter1==5){*counter1=0;*x1=-1;*y1=-1;*counter2=-1;*x2=-1;*y2=-1; *colourCounter=-1; *co
 598              		.loc 1 51 13 is_stmt 1
  51:main.c        ****       if(*counter1==5){*counter1=0;*x1=-1;*y1=-1;*counter2=-1;*x2=-1;*y2=-1; *colourCounter=-1; *co
 599              		.loc 1 51 32 is_stmt 0
 600 02ca 9843     		lw	a4,0(a5)
  52:main.c        ****       if(*counter1==0 && *x2==-1 || *counter1==2 && *x1==-1){*x1=*x1+113;} if(*counter1==1 && *y2==
 601              		.loc 1 52 9
 602 02cc 1545     		li	a0,5
  51:main.c        ****       if(*counter1==5){*counter1=0;*x1=-1;*y1=-1;*counter2=-1;*x2=-1;*y2=-1; *colourCounter=-1; *co
 603              		.loc 1 51 32
 604 02ce 0507     		addi	a4,a4,1
  52:main.c        ****       if(*counter1==0 && *x2==-1 || *counter1==2 && *x1==-1){*x1=*x1+113;} if(*counter1==1 && *y2==
 605              		.loc 1 52 7 is_stmt 1
  52:main.c        ****       if(*counter1==0 && *x2==-1 || *counter1==2 && *x1==-1){*x1=*x1+113;} if(*counter1==1 && *y2==
 606              		.loc 1 52 9 is_stmt 0
 607 02d0 6300A724 		beq	a4,a0,.L117
  51:main.c        ****       if(*counter1==5){*counter1=0;*x1=-1;*y1=-1;*counter2=-1;*x2=-1;*y2=-1; *colourCounter=-1; *co
 608              		.loc 1 51 22
 609 02d4 98C3     		sw	a4,0(a5)
 610              	.L118:
  53:main.c        ****       if(*counter2>-1){*counter2=*counter2+1; if(*counter2==2){*x2=*y2+57;} if(*counter2==1){*y2=*x
 611              		.loc 1 53 7 is_stmt 1
  53:main.c        ****       if(*counter2>-1){*counter2=*counter2+1; if(*counter2==2){*x2=*y2+57;} if(*counter2==1){*y2=*x
 612              		.loc 1 53 10 is_stmt 0
 613 02d6 9843     		lw	a4,0(a5)
  53:main.c        ****       if(*counter2>-1){*counter2=*counter2+1; if(*counter2==2){*x2=*y2+57;} if(*counter2==1){*y2=*x
 614              		.loc 1 53 9
 615 02d8 631F0734 		bne	a4,zero,.L119
  53:main.c        ****       if(*counter2>-1){*counter2=*counter2+1; if(*counter2==2){*x2=*y2+57;} if(*counter2==1){*y2=*x
 616              		.loc 1 53 23 discriminator 1
 617 02dc 0842     		lw	a0,0(a2)
 618 02de 7D57     		li	a4,-1
 619 02e0 630CE55A 		beq	a0,a4,.L180
 620              	.LVL35:
 621              	.L121:
  54:main.c        ****       if(*colourCounter==0){*colourchoice=*colourchoice+7;} return; 
 622              		.loc 1 54 7 is_stmt 1
  54:main.c        ****       if(*colourCounter==0){*colourchoice=*colourchoice+7;} return; 
 623              		.loc 1 54 10 is_stmt 0
 624 02e4 83270800 		lw	a5,0(a6)
  54:main.c        ****       if(*colourCounter==0){*colourchoice=*colourchoice+7;} return; 
 625              		.loc 1 54 9
 626 02e8 63C50702 		blt	a5,zero,.L128
  54:main.c        ****       if(*colourCounter==0){*colourchoice=*colourchoice+7;} return; 
 627              		.loc 1 54 24 is_stmt 1 discriminator 1
  54:main.c        ****       if(*colourCounter==0){*colourchoice=*colourchoice+7;} return; 
 628              		.loc 1 54 43 is_stmt 0 discriminator 1
 629 02ec 8507     		addi	a5,a5,1
  54:main.c        ****       if(*colourCounter==0){*colourchoice=*colourchoice+7;} return; 
 630              		.loc 1 54 33 discriminator 1
 631 02ee 2320F800 		sw	a5,0(a6)
  54:main.c        ****       if(*colourCounter==0){*colourchoice=*colourchoice+7;} return; 
 632              		.loc 1 54 47 is_stmt 1 discriminator 1
  54:main.c        ****       if(*colourCounter==0){*colourchoice=*colourchoice+7;} return; 
 633              		.loc 1 54 49 is_stmt 0 discriminator 1
 634 02f2 0947     		li	a4,2
GAS LISTING C:\Users\GTSAIN~1\AppData\Local\Temp\ccIslvt7.s 			page 18


 635 02f4 6398E700 		bne	a5,a4,.L129
  54:main.c        ****       if(*colourCounter==0){*colourchoice=*colourchoice+7;} return; 
 636              		.loc 1 54 64 is_stmt 1 discriminator 2
  54:main.c        ****       if(*colourCounter==0){*colourchoice=*colourchoice+7;} return; 
 637              		.loc 1 54 71 is_stmt 0 discriminator 2
 638 02f8 9C41     		lw	a5,0(a1)
 639 02fa 93879703 		addi	a5,a5,57
  54:main.c        ****       if(*colourCounter==0){*colourchoice=*colourchoice+7;} return; 
 640              		.loc 1 54 67 discriminator 2
 641 02fe 1CC2     		sw	a5,0(a2)
 642 0300 83270800 		lw	a5,0(a6)
 643              	.L129:
  54:main.c        ****       if(*colourCounter==0){*colourchoice=*colourchoice+7;} return; 
 644              		.loc 1 54 77 is_stmt 1 discriminator 4
  54:main.c        ****       if(*colourCounter==0){*colourchoice=*colourchoice+7;} return; 
 645              		.loc 1 54 79 is_stmt 0 discriminator 4
 646 0304 0547     		li	a4,1
 647 0306 6396E700 		bne	a5,a4,.L128
  54:main.c        ****       if(*colourCounter==0){*colourchoice=*colourchoice+7;} return; 
 648              		.loc 1 54 94 is_stmt 1 discriminator 5
  54:main.c        ****       if(*colourCounter==0){*colourchoice=*colourchoice+7;} return; 
 649              		.loc 1 54 101 is_stmt 0 discriminator 5
 650 030a 1C42     		lw	a5,0(a2)
 651 030c 93871707 		addi	a5,a5,113
  54:main.c        ****       if(*colourCounter==0){*colourchoice=*colourchoice+7;} return; 
 652              		.loc 1 54 97 discriminator 5
 653 0310 9CC1     		sw	a5,0(a1)
 654              	.L128:
  55:main.c        **** 
 655              		.loc 1 55 7 is_stmt 1
  55:main.c        **** 
 656              		.loc 1 55 9 is_stmt 0
 657 0312 83A70800 		lw	a5,0(a7)
 658 0316 E39F07D0 		bne	a5,zero,.L1
  55:main.c        **** 
 659              		.loc 1 55 29 is_stmt 1 discriminator 1
  55:main.c        **** 
 660              		.loc 1 55 56 is_stmt 0 discriminator 1
 661 031a 9C42     		lw	a5,0(a3)
 662 031c 9D07     		addi	a5,a5,7
  55:main.c        **** 
 663              		.loc 1 55 42 discriminator 1
 664 031e 9CC2     		sw	a5,0(a3)
 665 0320 8280     		ret
 666              	.LVL36:
 667              	.L11:
  57:main.c        ****       if(*counter1==5){*counter1=0;*x1=-1;*y1=-1;*counter2=-1;*x2=-1;*y2=-1; *colourCounter=-1; *co
 668              		.loc 1 57 13 is_stmt 1
  57:main.c        ****       if(*counter1==5){*counter1=0;*x1=-1;*y1=-1;*counter2=-1;*x2=-1;*y2=-1; *colourCounter=-1; *co
 669              		.loc 1 57 32 is_stmt 0
 670 0322 9843     		lw	a4,0(a5)
  58:main.c        ****       if(*counter1==0 && *x2==-1 || *counter1==2 && *x1==-1){*x1=*x1+129;} if(*counter1==1 && *y2==
 671              		.loc 1 58 9
 672 0324 1545     		li	a0,5
  57:main.c        ****       if(*counter1==5){*counter1=0;*x1=-1;*y1=-1;*counter2=-1;*x2=-1;*y2=-1; *colourCounter=-1; *co
 673              		.loc 1 57 32
 674 0326 0507     		addi	a4,a4,1
GAS LISTING C:\Users\GTSAIN~1\AppData\Local\Temp\ccIslvt7.s 			page 19


  58:main.c        ****       if(*counter1==0 && *x2==-1 || *counter1==2 && *x1==-1){*x1=*x1+129;} if(*counter1==1 && *y2==
 675              		.loc 1 58 7 is_stmt 1
  58:main.c        ****       if(*counter1==0 && *x2==-1 || *counter1==2 && *x1==-1){*x1=*x1+129;} if(*counter1==1 && *y2==
 676              		.loc 1 58 9 is_stmt 0
 677 0328 6308A722 		beq	a4,a0,.L131
  57:main.c        ****       if(*counter1==5){*counter1=0;*x1=-1;*y1=-1;*counter2=-1;*x2=-1;*y2=-1; *colourCounter=-1; *co
 678              		.loc 1 57 22
 679 032c 98C3     		sw	a4,0(a5)
 680              	.L132:
  59:main.c        ****       if(*counter2>-1){*counter2=*counter2+1; if(*counter2==2){*y2=*y2+65;} if(*counter2==1){*x2=*x
 681              		.loc 1 59 7 is_stmt 1
  59:main.c        ****       if(*counter2>-1){*counter2=*counter2+1; if(*counter2==2){*y2=*y2+65;} if(*counter2==1){*x2=*x
 682              		.loc 1 59 10 is_stmt 0
 683 032e 9843     		lw	a4,0(a5)
  59:main.c        ****       if(*counter2>-1){*counter2=*counter2+1; if(*counter2==2){*y2=*y2+65;} if(*counter2==1){*x2=*x
 684              		.loc 1 59 9
 685 0330 631D073C 		bne	a4,zero,.L133
  59:main.c        ****       if(*counter2>-1){*counter2=*counter2+1; if(*counter2==2){*y2=*y2+65;} if(*counter2==1){*x2=*x
 686              		.loc 1 59 23 discriminator 1
 687 0334 0842     		lw	a0,0(a2)
 688 0336 7D57     		li	a4,-1
 689 0338 6303E556 		beq	a0,a4,.L181
 690              	.LVL37:
 691              	.L135:
  60:main.c        ****       if(*colourCounter==0){*colourchoice=*colourchoice+8;} return; 
 692              		.loc 1 60 7 is_stmt 1
  60:main.c        ****       if(*colourCounter==0){*colourchoice=*colourchoice+8;} return; 
 693              		.loc 1 60 10 is_stmt 0
 694 033c 83270800 		lw	a5,0(a6)
  60:main.c        ****       if(*colourCounter==0){*colourchoice=*colourchoice+8;} return; 
 695              		.loc 1 60 9
 696 0340 63C50702 		blt	a5,zero,.L142
  60:main.c        ****       if(*colourCounter==0){*colourchoice=*colourchoice+8;} return; 
 697              		.loc 1 60 24 is_stmt 1 discriminator 1
  60:main.c        ****       if(*colourCounter==0){*colourchoice=*colourchoice+8;} return; 
 698              		.loc 1 60 43 is_stmt 0 discriminator 1
 699 0344 8507     		addi	a5,a5,1
  60:main.c        ****       if(*colourCounter==0){*colourchoice=*colourchoice+8;} return; 
 700              		.loc 1 60 33 discriminator 1
 701 0346 2320F800 		sw	a5,0(a6)
  60:main.c        ****       if(*colourCounter==0){*colourchoice=*colourchoice+8;} return; 
 702              		.loc 1 60 47 is_stmt 1 discriminator 1
  60:main.c        ****       if(*colourCounter==0){*colourchoice=*colourchoice+8;} return; 
 703              		.loc 1 60 49 is_stmt 0 discriminator 1
 704 034a 0947     		li	a4,2
 705 034c 6398E700 		bne	a5,a4,.L143
  60:main.c        ****       if(*colourCounter==0){*colourchoice=*colourchoice+8;} return; 
 706              		.loc 1 60 64 is_stmt 1 discriminator 2
  60:main.c        ****       if(*colourCounter==0){*colourchoice=*colourchoice+8;} return; 
 707              		.loc 1 60 71 is_stmt 0 discriminator 2
 708 0350 9C41     		lw	a5,0(a1)
 709 0352 93871704 		addi	a5,a5,65
  60:main.c        ****       if(*colourCounter==0){*colourchoice=*colourchoice+8;} return; 
 710              		.loc 1 60 67 discriminator 2
 711 0356 9CC1     		sw	a5,0(a1)
 712 0358 83270800 		lw	a5,0(a6)
 713              	.L143:
GAS LISTING C:\Users\GTSAIN~1\AppData\Local\Temp\ccIslvt7.s 			page 20


  60:main.c        ****       if(*colourCounter==0){*colourchoice=*colourchoice+8;} return; 
 714              		.loc 1 60 77 is_stmt 1 discriminator 4
  60:main.c        ****       if(*colourCounter==0){*colourchoice=*colourchoice+8;} return; 
 715              		.loc 1 60 79 is_stmt 0 discriminator 4
 716 035c 0547     		li	a4,1
 717 035e 6396E700 		bne	a5,a4,.L142
  60:main.c        ****       if(*colourCounter==0){*colourchoice=*colourchoice+8;} return; 
 718              		.loc 1 60 94 is_stmt 1 discriminator 5
  60:main.c        ****       if(*colourCounter==0){*colourchoice=*colourchoice+8;} return; 
 719              		.loc 1 60 101 is_stmt 0 discriminator 5
 720 0362 1C42     		lw	a5,0(a2)
 721 0364 93871708 		addi	a5,a5,129
  60:main.c        ****       if(*colourCounter==0){*colourchoice=*colourchoice+8;} return; 
 722              		.loc 1 60 97 discriminator 5
 723 0368 1CC2     		sw	a5,0(a2)
 724              	.L142:
  61:main.c        **** 
 725              		.loc 1 61 7 is_stmt 1
  61:main.c        **** 
 726              		.loc 1 61 9 is_stmt 0
 727 036a 83A70800 		lw	a5,0(a7)
 728 036e E39307CC 		bne	a5,zero,.L1
  61:main.c        **** 
 729              		.loc 1 61 29 is_stmt 1 discriminator 1
  61:main.c        **** 
 730              		.loc 1 61 56 is_stmt 0 discriminator 1
 731 0372 9C42     		lw	a5,0(a3)
 732 0374 A107     		addi	a5,a5,8
  61:main.c        **** 
 733              		.loc 1 61 42 discriminator 1
 734 0376 9CC2     		sw	a5,0(a3)
 735 0378 8280     		ret
 736              	.LVL38:
 737              	.L10:
  63:main.c        ****       if(*counter1==5){*counter1=0;*x1=-1;*y1=-1;*counter2=-1;*x2=-1;*y2=-1; *colourCounter=-1; *co
 738              		.loc 1 63 13 is_stmt 1
  63:main.c        ****       if(*counter1==5){*counter1=0;*x1=-1;*y1=-1;*counter2=-1;*x2=-1;*y2=-1; *colourCounter=-1; *co
 739              		.loc 1 63 32 is_stmt 0
 740 037a 9843     		lw	a4,0(a5)
  64:main.c        ****       if(*counter1==0 && *x2==-1|| *counter1==2 && *x1==-1){*x1=*x1+160;} if(*counter1==1 && *y2==-
 741              		.loc 1 64 9
 742 037c 1545     		li	a0,5
  63:main.c        ****       if(*counter1==5){*counter1=0;*x1=-1;*y1=-1;*counter2=-1;*x2=-1;*y2=-1; *colourCounter=-1; *co
 743              		.loc 1 63 32
 744 037e 0507     		addi	a4,a4,1
  64:main.c        ****       if(*counter1==0 && *x2==-1|| *counter1==2 && *x1==-1){*x1=*x1+160;} if(*counter1==1 && *y2==-
 745              		.loc 1 64 7 is_stmt 1
  64:main.c        ****       if(*counter1==0 && *x2==-1|| *counter1==2 && *x1==-1){*x1=*x1+160;} if(*counter1==1 && *y2==-
 746              		.loc 1 64 9 is_stmt 0
 747 0380 630EA71E 		beq	a4,a0,.L145
  63:main.c        ****       if(*counter1==5){*counter1=0;*x1=-1;*y1=-1;*counter2=-1;*x2=-1;*y2=-1; *colourCounter=-1; *co
 748              		.loc 1 63 22
 749 0384 98C3     		sw	a4,0(a5)
 750              	.L146:
  65:main.c        ****       if(*counter2>-1){*counter2=*counter2+1; if(*counter2==2){*y2=*y2+81;} if(*counter2==1){*x2=*x
 751              		.loc 1 65 7 is_stmt 1
  65:main.c        ****       if(*counter2>-1){*counter2=*counter2+1; if(*counter2==2){*y2=*y2+81;} if(*counter2==1){*x2=*x
GAS LISTING C:\Users\GTSAIN~1\AppData\Local\Temp\ccIslvt7.s 			page 21


 752              		.loc 1 65 9 is_stmt 0
 753 0386 63120724 		bne	a4,zero,.L147
  65:main.c        ****       if(*counter2>-1){*counter2=*counter2+1; if(*counter2==2){*y2=*y2+81;} if(*counter2==1){*x2=*x
 754              		.loc 1 65 23 discriminator 1
 755 038a 0842     		lw	a0,0(a2)
 756 038c 7D57     		li	a4,-1
 757 038e 6304E552 		beq	a0,a4,.L182
 758              	.LVL39:
 759              	.L149:
  66:main.c        ****       if(*colourCounter==0){*colourchoice=*colourchoice+9;} return;  
 760              		.loc 1 66 7 is_stmt 1
  66:main.c        ****       if(*colourCounter==0){*colourchoice=*colourchoice+9;} return;  
 761              		.loc 1 66 10 is_stmt 0
 762 0392 83270800 		lw	a5,0(a6)
  66:main.c        ****       if(*colourCounter==0){*colourchoice=*colourchoice+9;} return;  
 763              		.loc 1 66 9
 764 0396 63C50702 		blt	a5,zero,.L156
  66:main.c        ****       if(*colourCounter==0){*colourchoice=*colourchoice+9;} return;  
 765              		.loc 1 66 24 is_stmt 1 discriminator 1
  66:main.c        ****       if(*colourCounter==0){*colourchoice=*colourchoice+9;} return;  
 766              		.loc 1 66 43 is_stmt 0 discriminator 1
 767 039a 8507     		addi	a5,a5,1
  66:main.c        ****       if(*colourCounter==0){*colourchoice=*colourchoice+9;} return;  
 768              		.loc 1 66 33 discriminator 1
 769 039c 2320F800 		sw	a5,0(a6)
  66:main.c        ****       if(*colourCounter==0){*colourchoice=*colourchoice+9;} return;  
 770              		.loc 1 66 47 is_stmt 1 discriminator 1
  66:main.c        ****       if(*colourCounter==0){*colourchoice=*colourchoice+9;} return;  
 771              		.loc 1 66 49 is_stmt 0 discriminator 1
 772 03a0 0947     		li	a4,2
 773 03a2 6398E700 		bne	a5,a4,.L157
  66:main.c        ****       if(*colourCounter==0){*colourchoice=*colourchoice+9;} return;  
 774              		.loc 1 66 64 is_stmt 1 discriminator 2
  66:main.c        ****       if(*colourCounter==0){*colourchoice=*colourchoice+9;} return;  
 775              		.loc 1 66 71 is_stmt 0 discriminator 2
 776 03a6 9C41     		lw	a5,0(a1)
 777 03a8 93871705 		addi	a5,a5,81
  66:main.c        ****       if(*colourCounter==0){*colourchoice=*colourchoice+9;} return;  
 778              		.loc 1 66 67 discriminator 2
 779 03ac 9CC1     		sw	a5,0(a1)
 780 03ae 83270800 		lw	a5,0(a6)
 781              	.L157:
  66:main.c        ****       if(*colourCounter==0){*colourchoice=*colourchoice+9;} return;  
 782              		.loc 1 66 77 is_stmt 1 discriminator 4
  66:main.c        ****       if(*colourCounter==0){*colourchoice=*colourchoice+9;} return;  
 783              		.loc 1 66 79 is_stmt 0 discriminator 4
 784 03b2 0547     		li	a4,1
 785 03b4 6396E700 		bne	a5,a4,.L156
  66:main.c        ****       if(*colourCounter==0){*colourchoice=*colourchoice+9;} return;  
 786              		.loc 1 66 94 is_stmt 1 discriminator 5
  66:main.c        ****       if(*colourCounter==0){*colourchoice=*colourchoice+9;} return;  
 787              		.loc 1 66 101 is_stmt 0 discriminator 5
 788 03b8 1C42     		lw	a5,0(a2)
 789 03ba 9387070A 		addi	a5,a5,160
  66:main.c        ****       if(*colourCounter==0){*colourchoice=*colourchoice+9;} return;  
 790              		.loc 1 66 97 discriminator 5
 791 03be 1CC2     		sw	a5,0(a2)
GAS LISTING C:\Users\GTSAIN~1\AppData\Local\Temp\ccIslvt7.s 			page 22


 792              	.L156:
  67:main.c        **** 
 793              		.loc 1 67 7 is_stmt 1
  67:main.c        **** 
 794              		.loc 1 67 9 is_stmt 0
 795 03c0 83A70800 		lw	a5,0(a7)
 796 03c4 E39807C6 		bne	a5,zero,.L1
  67:main.c        **** 
 797              		.loc 1 67 29 is_stmt 1 discriminator 1
  67:main.c        **** 
 798              		.loc 1 67 56 is_stmt 0 discriminator 1
 799 03c8 9C42     		lw	a5,0(a3)
 800 03ca A507     		addi	a5,a5,9
  67:main.c        **** 
 801              		.loc 1 67 42 discriminator 1
 802 03cc 9CC2     		sw	a5,0(a3)
 803 03ce 8280     		ret
 804              	.LVL40:
 805              	.L8:
  71:main.c        **** 
 806              		.loc 1 71 14 is_stmt 1
  71:main.c        **** 
 807              		.loc 1 71 16 is_stmt 0
 808 03d0 83270800 		lw	a5,0(a6)
 809              	.LVL41:
 810 03d4 FD56     		li	a3,-1
 811              	.LVL42:
 812 03d6 03270E00 		lw	a4,0(t3)
 813 03da 6384D71C 		beq	a5,a3,.L183
  71:main.c        **** 
 814              		.loc 1 71 67 is_stmt 1 discriminator 3
  71:main.c        **** 
 815              		.loc 1 71 69 is_stmt 0 discriminator 3
 816 03de 635A0704 		bge	a4,zero,.L161
 817 03e2 8280     		ret
 818              	.LVL43:
 819              	.L7:
  73:main.c        ****              if(*colourchoice==0){*colourDisplay=65535; return;}//WHITE
 820              		.loc 1 73 14 is_stmt 1
  73:main.c        ****              if(*colourchoice==0){*colourDisplay=65535; return;}//WHITE
 821              		.loc 1 73 16 is_stmt 0
 822 03e4 03A70800 		lw	a4,0(a7)
 823 03e8 6346071C 		blt	a4,zero,.L184
  74:main.c        ****              if(*colourchoice==1){*colourDisplay=65504; return;}//YELLOW
 824              		.loc 1 74 14 is_stmt 1
  74:main.c        ****              if(*colourchoice==1){*colourDisplay=65504; return;}//YELLOW
 825              		.loc 1 74 17 is_stmt 0
 826 03ec 9C42     		lw	a5,0(a3)
 827              	.LVL44:
  74:main.c        ****              if(*colourchoice==1){*colourDisplay=65504; return;}//YELLOW
 828              		.loc 1 74 16
 829 03ee 6380074A 		beq	a5,zero,.L185
  75:main.c        ****              if(*colourchoice==2){*colourDisplay=63519; return;}//BRED
 830              		.loc 1 75 14 is_stmt 1
  75:main.c        ****              if(*colourchoice==2){*colourDisplay=63519; return;}//BRED
 831              		.loc 1 75 16 is_stmt 0
 832 03f2 0547     		li	a4,1
GAS LISTING C:\Users\GTSAIN~1\AppData\Local\Temp\ccIslvt7.s 			page 23


 833 03f4 6380E74E 		beq	a5,a4,.L186
  76:main.c        ****              if(*colourchoice==3){*colourDisplay=48192; return;}//BROWN
 834              		.loc 1 76 14 is_stmt 1
  76:main.c        ****              if(*colourchoice==3){*colourDisplay=48192; return;}//BROWN
 835              		.loc 1 76 16 is_stmt 0
 836 03f8 0947     		li	a4,2
 837 03fa 6382E74E 		beq	a5,a4,.L187
  77:main.c        ****              if(*colourchoice==4){*colourDisplay=0; return;}//BLACK
 838              		.loc 1 77 14 is_stmt 1
  77:main.c        ****              if(*colourchoice==4){*colourDisplay=0; return;}//BLACK
 839              		.loc 1 77 16 is_stmt 0
 840 03fe 0D47     		li	a4,3
 841 0400 6385E74E 		beq	a5,a4,.L188
  78:main.c        ****              if(*colourchoice==5){*colourDisplay=31; return;}//BLUE
 842              		.loc 1 78 14 is_stmt 1
  78:main.c        ****              if(*colourchoice==5){*colourDisplay=31; return;}//BLUE
 843              		.loc 1 78 16 is_stmt 0
 844 0404 1147     		li	a4,4
 845 0406 6388E74E 		beq	a5,a4,.L189
  79:main.c        ****              if(*colourchoice==6){*colourDisplay=2016; return;}//GREEN
 846              		.loc 1 79 14 is_stmt 1
  79:main.c        ****              if(*colourchoice==6){*colourDisplay=2016; return;}//GREEN
 847              		.loc 1 79 16 is_stmt 0
 848 040a 1547     		li	a4,5
 849 040c 6388E74E 		beq	a5,a4,.L190
  80:main.c        ****              if(*colourchoice==7){*colourDisplay=32767; return;}//CYAN
 850              		.loc 1 80 14 is_stmt 1
  80:main.c        ****              if(*colourchoice==7){*colourDisplay=32767; return;}//CYAN
 851              		.loc 1 80 16 is_stmt 0
 852 0410 1947     		li	a4,6
 853 0412 6389E74E 		beq	a5,a4,.L191
  81:main.c        ****              if(*colourchoice==8){*colourDisplay=33840; return;}//GRAY
 854              		.loc 1 81 14 is_stmt 1
  81:main.c        ****              if(*colourchoice==8){*colourDisplay=33840; return;}//GRAY
 855              		.loc 1 81 16 is_stmt 0
 856 0416 1D47     		li	a4,7
 857 0418 638BE74E 		beq	a5,a4,.L192
  82:main.c        ****              if(*colourchoice==9){*colourDisplay=463; return;}//DARK BLUE
 858              		.loc 1 82 14 is_stmt 1
  82:main.c        ****              if(*colourchoice==9){*colourDisplay=463; return;}//DARK BLUE
 859              		.loc 1 82 16 is_stmt 0
 860 041c 2147     		li	a4,8
 861 041e 638DE74E 		beq	a5,a4,.L193
  83:main.c        **** 
 862              		.loc 1 83 14 is_stmt 1
  83:main.c        **** 
 863              		.loc 1 83 16 is_stmt 0
 864 0422 2547     		li	a4,9
 865 0424 E399E7C0 		bne	a5,a4,.L6
  83:main.c        **** 
 866              		.loc 1 83 35 is_stmt 1 discriminator 1
  83:main.c        **** 
 867              		.loc 1 83 49 is_stmt 0 discriminator 1
 868 0428 9307F01C 		li	a5,463
 869 042c 2320FF00 		sw	a5,0(t5)
  83:main.c        **** 
 870              		.loc 1 83 55 is_stmt 1 discriminator 1
GAS LISTING C:\Users\GTSAIN~1\AppData\Local\Temp\ccIslvt7.s 			page 24


 871 0430 8280     		ret
 872              	.LVL45:
 873              	.L161:
  69:main.c        ****     
 874              		.loc 1 69 51 discriminator 4
  69:main.c        ****     
 875              		.loc 1 69 65 is_stmt 0 discriminator 4
 876 0432 23A00800 		sw	zero,0(a7)
 877 0436 8280     		ret
 878              	.LVL46:
 879              	.L33:
  16:main.c        ****       if(*counter1==0 && *x2==-1 || *counter1==2 && *x1==-1){*x1=*x1+17;} if(*counter1==1 && *y2==-
 880              		.loc 1 16 24 is_stmt 1 discriminator 1
  16:main.c        ****       if(*counter1==0 && *x2==-1 || *counter1==2 && *x1==-1){*x1=*x1+17;} if(*counter1==1 && *y2==-
 881              		.loc 1 16 33 is_stmt 0 discriminator 1
 882 0438 23A00700 		sw	zero,0(a5)
  16:main.c        ****       if(*counter1==0 && *x2==-1 || *counter1==2 && *x1==-1){*x1=*x1+17;} if(*counter1==1 && *y2==-
 883              		.loc 1 16 36 is_stmt 1 discriminator 1
  16:main.c        ****       if(*counter1==0 && *x2==-1 || *counter1==2 && *x1==-1){*x1=*x1+17;} if(*counter1==1 && *y2==-
 884              		.loc 1 16 39 is_stmt 0 discriminator 1
 885 043c 7D57     		li	a4,-1
 886 043e 2320EE00 		sw	a4,0(t3)
  16:main.c        ****       if(*counter1==0 && *x2==-1 || *counter1==2 && *x1==-1){*x1=*x1+17;} if(*counter1==1 && *y2==-
 887              		.loc 1 16 43 is_stmt 1 discriminator 1
  16:main.c        ****       if(*counter1==0 && *x2==-1 || *counter1==2 && *x1==-1){*x1=*x1+17;} if(*counter1==1 && *y2==-
 888              		.loc 1 16 46 is_stmt 0 discriminator 1
 889 0442 23A0EE00 		sw	a4,0(t4)
  16:main.c        ****       if(*counter1==0 && *x2==-1 || *counter1==2 && *x1==-1){*x1=*x1+17;} if(*counter1==1 && *y2==-
 890              		.loc 1 16 50 is_stmt 1 discriminator 1
  16:main.c        ****       if(*counter1==0 && *x2==-1 || *counter1==2 && *x1==-1){*x1=*x1+17;} if(*counter1==1 && *y2==-
 891              		.loc 1 16 59 is_stmt 0 discriminator 1
 892 0446 2320E800 		sw	a4,0(a6)
  16:main.c        ****       if(*counter1==0 && *x2==-1 || *counter1==2 && *x1==-1){*x1=*x1+17;} if(*counter1==1 && *y2==-
 893              		.loc 1 16 63 is_stmt 1 discriminator 1
  16:main.c        ****       if(*counter1==0 && *x2==-1 || *counter1==2 && *x1==-1){*x1=*x1+17;} if(*counter1==1 && *y2==-
 894              		.loc 1 16 66 is_stmt 0 discriminator 1
 895 044a 18C2     		sw	a4,0(a2)
  16:main.c        ****       if(*counter1==0 && *x2==-1 || *counter1==2 && *x1==-1){*x1=*x1+17;} if(*counter1==1 && *y2==-
 896              		.loc 1 16 70 is_stmt 1 discriminator 1
  16:main.c        ****       if(*counter1==0 && *x2==-1 || *counter1==2 && *x1==-1){*x1=*x1+17;} if(*counter1==1 && *y2==-
 897              		.loc 1 16 73 is_stmt 0 discriminator 1
 898 044c 98C1     		sw	a4,0(a1)
  16:main.c        ****       if(*counter1==0 && *x2==-1 || *counter1==2 && *x1==-1){*x1=*x1+17;} if(*counter1==1 && *y2==-
 899              		.loc 1 16 78 is_stmt 1 discriminator 1
  16:main.c        ****       if(*counter1==0 && *x2==-1 || *counter1==2 && *x1==-1){*x1=*x1+17;} if(*counter1==1 && *y2==-
 900              		.loc 1 16 92 is_stmt 0 discriminator 1
 901 044e 23A0E800 		sw	a4,0(a7)
  16:main.c        ****       if(*counter1==0 && *x2==-1 || *counter1==2 && *x1==-1){*x1=*x1+17;} if(*counter1==1 && *y2==-
 902              		.loc 1 16 97 is_stmt 1 discriminator 1
  16:main.c        ****       if(*counter1==0 && *x2==-1 || *counter1==2 && *x1==-1){*x1=*x1+17;} if(*counter1==1 && *y2==-
 903              		.loc 1 16 110 is_stmt 0 discriminator 1
 904 0452 23A00600 		sw	zero,0(a3)
  16:main.c        ****       if(*counter1==0 && *x2==-1 || *counter1==2 && *x1==-1){*x1=*x1+17;} if(*counter1==1 && *y2==-
 905              		.loc 1 16 114 is_stmt 1 discriminator 1
  16:main.c        ****       if(*counter1==0 && *x2==-1 || *counter1==2 && *x1==-1){*x1=*x1+17;} if(*counter1==1 && *y2==-
 906              		.loc 1 16 128 is_stmt 0 discriminator 1
 907 0456 23200F00 		sw	zero,0(t5)
GAS LISTING C:\Users\GTSAIN~1\AppData\Local\Temp\ccIslvt7.s 			page 25


 908 045a 9DB9     		j	.L34
 909              	.L61:
  28:main.c        ****       if(*counter1==0 && *x2==-1 || *counter1==2 && *x1==-1){*x1=*x1+49;} if(*counter1==1 && *y2==-
 910              		.loc 1 28 24 is_stmt 1 discriminator 1
  28:main.c        ****       if(*counter1==0 && *x2==-1 || *counter1==2 && *x1==-1){*x1=*x1+49;} if(*counter1==1 && *y2==-
 911              		.loc 1 28 33 is_stmt 0 discriminator 1
 912 045c 23A00700 		sw	zero,0(a5)
  28:main.c        ****       if(*counter1==0 && *x2==-1 || *counter1==2 && *x1==-1){*x1=*x1+49;} if(*counter1==1 && *y2==-
 913              		.loc 1 28 36 is_stmt 1 discriminator 1
  28:main.c        ****       if(*counter1==0 && *x2==-1 || *counter1==2 && *x1==-1){*x1=*x1+49;} if(*counter1==1 && *y2==-
 914              		.loc 1 28 39 is_stmt 0 discriminator 1
 915 0460 7D57     		li	a4,-1
 916 0462 2320EE00 		sw	a4,0(t3)
  28:main.c        ****       if(*counter1==0 && *x2==-1 || *counter1==2 && *x1==-1){*x1=*x1+49;} if(*counter1==1 && *y2==-
 917              		.loc 1 28 43 is_stmt 1 discriminator 1
  28:main.c        ****       if(*counter1==0 && *x2==-1 || *counter1==2 && *x1==-1){*x1=*x1+49;} if(*counter1==1 && *y2==-
 918              		.loc 1 28 46 is_stmt 0 discriminator 1
 919 0466 23A0EE00 		sw	a4,0(t4)
  28:main.c        ****       if(*counter1==0 && *x2==-1 || *counter1==2 && *x1==-1){*x1=*x1+49;} if(*counter1==1 && *y2==-
 920              		.loc 1 28 50 is_stmt 1 discriminator 1
  28:main.c        ****       if(*counter1==0 && *x2==-1 || *counter1==2 && *x1==-1){*x1=*x1+49;} if(*counter1==1 && *y2==-
 921              		.loc 1 28 59 is_stmt 0 discriminator 1
 922 046a 2320E800 		sw	a4,0(a6)
  28:main.c        ****       if(*counter1==0 && *x2==-1 || *counter1==2 && *x1==-1){*x1=*x1+49;} if(*counter1==1 && *y2==-
 923              		.loc 1 28 63 is_stmt 1 discriminator 1
  28:main.c        ****       if(*counter1==0 && *x2==-1 || *counter1==2 && *x1==-1){*x1=*x1+49;} if(*counter1==1 && *y2==-
 924              		.loc 1 28 66 is_stmt 0 discriminator 1
 925 046e 18C2     		sw	a4,0(a2)
  28:main.c        ****       if(*counter1==0 && *x2==-1 || *counter1==2 && *x1==-1){*x1=*x1+49;} if(*counter1==1 && *y2==-
 926              		.loc 1 28 70 is_stmt 1 discriminator 1
  28:main.c        ****       if(*counter1==0 && *x2==-1 || *counter1==2 && *x1==-1){*x1=*x1+49;} if(*counter1==1 && *y2==-
 927              		.loc 1 28 73 is_stmt 0 discriminator 1
 928 0470 98C1     		sw	a4,0(a1)
  28:main.c        ****       if(*counter1==0 && *x2==-1 || *counter1==2 && *x1==-1){*x1=*x1+49;} if(*counter1==1 && *y2==-
 929              		.loc 1 28 78 is_stmt 1 discriminator 1
  28:main.c        ****       if(*counter1==0 && *x2==-1 || *counter1==2 && *x1==-1){*x1=*x1+49;} if(*counter1==1 && *y2==-
 930              		.loc 1 28 92 is_stmt 0 discriminator 1
 931 0472 23A0E800 		sw	a4,0(a7)
  28:main.c        ****       if(*counter1==0 && *x2==-1 || *counter1==2 && *x1==-1){*x1=*x1+49;} if(*counter1==1 && *y2==-
 932              		.loc 1 28 97 is_stmt 1 discriminator 1
  28:main.c        ****       if(*counter1==0 && *x2==-1 || *counter1==2 && *x1==-1){*x1=*x1+49;} if(*counter1==1 && *y2==-
 933              		.loc 1 28 110 is_stmt 0 discriminator 1
 934 0476 23A00600 		sw	zero,0(a3)
  28:main.c        ****       if(*counter1==0 && *x2==-1 || *counter1==2 && *x1==-1){*x1=*x1+49;} if(*counter1==1 && *y2==-
 935              		.loc 1 28 114 is_stmt 1 discriminator 1
  28:main.c        ****       if(*counter1==0 && *x2==-1 || *counter1==2 && *x1==-1){*x1=*x1+49;} if(*counter1==1 && *y2==-
 936              		.loc 1 28 128 is_stmt 0 discriminator 1
 937 047a 23200F00 		sw	zero,0(t5)
 938 047e EDB9     		j	.L62
 939              	.L75:
  34:main.c        ****       if(*counter1==0 && *x2==-1 || *counter1==2 && *x1==-1){*x1=*x1+65;} if(*counter1==1 && *y2==-
 940              		.loc 1 34 24 is_stmt 1 discriminator 1
  34:main.c        ****       if(*counter1==0 && *x2==-1 || *counter1==2 && *x1==-1){*x1=*x1+65;} if(*counter1==1 && *y2==-
 941              		.loc 1 34 33 is_stmt 0 discriminator 1
 942 0480 23A00700 		sw	zero,0(a5)
  34:main.c        ****       if(*counter1==0 && *x2==-1 || *counter1==2 && *x1==-1){*x1=*x1+65;} if(*counter1==1 && *y2==-
 943              		.loc 1 34 36 is_stmt 1 discriminator 1
GAS LISTING C:\Users\GTSAIN~1\AppData\Local\Temp\ccIslvt7.s 			page 26


  34:main.c        ****       if(*counter1==0 && *x2==-1 || *counter1==2 && *x1==-1){*x1=*x1+65;} if(*counter1==1 && *y2==-
 944              		.loc 1 34 39 is_stmt 0 discriminator 1
 945 0484 7D57     		li	a4,-1
 946 0486 2320EE00 		sw	a4,0(t3)
  34:main.c        ****       if(*counter1==0 && *x2==-1 || *counter1==2 && *x1==-1){*x1=*x1+65;} if(*counter1==1 && *y2==-
 947              		.loc 1 34 43 is_stmt 1 discriminator 1
  34:main.c        ****       if(*counter1==0 && *x2==-1 || *counter1==2 && *x1==-1){*x1=*x1+65;} if(*counter1==1 && *y2==-
 948              		.loc 1 34 46 is_stmt 0 discriminator 1
 949 048a 23A0EE00 		sw	a4,0(t4)
  34:main.c        ****       if(*counter1==0 && *x2==-1 || *counter1==2 && *x1==-1){*x1=*x1+65;} if(*counter1==1 && *y2==-
 950              		.loc 1 34 50 is_stmt 1 discriminator 1
  34:main.c        ****       if(*counter1==0 && *x2==-1 || *counter1==2 && *x1==-1){*x1=*x1+65;} if(*counter1==1 && *y2==-
 951              		.loc 1 34 59 is_stmt 0 discriminator 1
 952 048e 2320E800 		sw	a4,0(a6)
  34:main.c        ****       if(*counter1==0 && *x2==-1 || *counter1==2 && *x1==-1){*x1=*x1+65;} if(*counter1==1 && *y2==-
 953              		.loc 1 34 63 is_stmt 1 discriminator 1
  34:main.c        ****       if(*counter1==0 && *x2==-1 || *counter1==2 && *x1==-1){*x1=*x1+65;} if(*counter1==1 && *y2==-
 954              		.loc 1 34 66 is_stmt 0 discriminator 1
 955 0492 18C2     		sw	a4,0(a2)
  34:main.c        ****       if(*counter1==0 && *x2==-1 || *counter1==2 && *x1==-1){*x1=*x1+65;} if(*counter1==1 && *y2==-
 956              		.loc 1 34 70 is_stmt 1 discriminator 1
  34:main.c        ****       if(*counter1==0 && *x2==-1 || *counter1==2 && *x1==-1){*x1=*x1+65;} if(*counter1==1 && *y2==-
 957              		.loc 1 34 73 is_stmt 0 discriminator 1
 958 0494 98C1     		sw	a4,0(a1)
  34:main.c        ****       if(*counter1==0 && *x2==-1 || *counter1==2 && *x1==-1){*x1=*x1+65;} if(*counter1==1 && *y2==-
 959              		.loc 1 34 78 is_stmt 1 discriminator 1
  34:main.c        ****       if(*counter1==0 && *x2==-1 || *counter1==2 && *x1==-1){*x1=*x1+65;} if(*counter1==1 && *y2==-
 960              		.loc 1 34 92 is_stmt 0 discriminator 1
 961 0496 23A0E800 		sw	a4,0(a7)
  34:main.c        ****       if(*counter1==0 && *x2==-1 || *counter1==2 && *x1==-1){*x1=*x1+65;} if(*counter1==1 && *y2==-
 962              		.loc 1 34 97 is_stmt 1 discriminator 1
  34:main.c        ****       if(*counter1==0 && *x2==-1 || *counter1==2 && *x1==-1){*x1=*x1+65;} if(*counter1==1 && *y2==-
 963              		.loc 1 34 110 is_stmt 0 discriminator 1
 964 049a 23A00600 		sw	zero,0(a3)
  34:main.c        ****       if(*counter1==0 && *x2==-1 || *counter1==2 && *x1==-1){*x1=*x1+65;} if(*counter1==1 && *y2==-
 965              		.loc 1 34 114 is_stmt 1 discriminator 1
  34:main.c        ****       if(*counter1==0 && *x2==-1 || *counter1==2 && *x1==-1){*x1=*x1+65;} if(*counter1==1 && *y2==-
 966              		.loc 1 34 128 is_stmt 0 discriminator 1
 967 049e 23200F00 		sw	zero,0(t5)
 968 04a2 35B3     		j	.L76
 969              	.L89:
  40:main.c        ****       if(*counter1==0 && *x2==-1 || *counter1==2 && *x1==-1){*x1=*x1+81;} if(*counter1==1 && *y2==-
 970              		.loc 1 40 24 is_stmt 1 discriminator 1
  40:main.c        ****       if(*counter1==0 && *x2==-1 || *counter1==2 && *x1==-1){*x1=*x1+81;} if(*counter1==1 && *y2==-
 971              		.loc 1 40 33 is_stmt 0 discriminator 1
 972 04a4 23A00700 		sw	zero,0(a5)
  40:main.c        ****       if(*counter1==0 && *x2==-1 || *counter1==2 && *x1==-1){*x1=*x1+81;} if(*counter1==1 && *y2==-
 973              		.loc 1 40 36 is_stmt 1 discriminator 1
  40:main.c        ****       if(*counter1==0 && *x2==-1 || *counter1==2 && *x1==-1){*x1=*x1+81;} if(*counter1==1 && *y2==-
 974              		.loc 1 40 39 is_stmt 0 discriminator 1
 975 04a8 7D57     		li	a4,-1
 976 04aa 2320EE00 		sw	a4,0(t3)
  40:main.c        ****       if(*counter1==0 && *x2==-1 || *counter1==2 && *x1==-1){*x1=*x1+81;} if(*counter1==1 && *y2==-
 977              		.loc 1 40 43 is_stmt 1 discriminator 1
  40:main.c        ****       if(*counter1==0 && *x2==-1 || *counter1==2 && *x1==-1){*x1=*x1+81;} if(*counter1==1 && *y2==-
 978              		.loc 1 40 46 is_stmt 0 discriminator 1
 979 04ae 23A0EE00 		sw	a4,0(t4)
GAS LISTING C:\Users\GTSAIN~1\AppData\Local\Temp\ccIslvt7.s 			page 27


  40:main.c        ****       if(*counter1==0 && *x2==-1 || *counter1==2 && *x1==-1){*x1=*x1+81;} if(*counter1==1 && *y2==-
 980              		.loc 1 40 50 is_stmt 1 discriminator 1
  40:main.c        ****       if(*counter1==0 && *x2==-1 || *counter1==2 && *x1==-1){*x1=*x1+81;} if(*counter1==1 && *y2==-
 981              		.loc 1 40 59 is_stmt 0 discriminator 1
 982 04b2 2320E800 		sw	a4,0(a6)
  40:main.c        ****       if(*counter1==0 && *x2==-1 || *counter1==2 && *x1==-1){*x1=*x1+81;} if(*counter1==1 && *y2==-
 983              		.loc 1 40 63 is_stmt 1 discriminator 1
  40:main.c        ****       if(*counter1==0 && *x2==-1 || *counter1==2 && *x1==-1){*x1=*x1+81;} if(*counter1==1 && *y2==-
 984              		.loc 1 40 66 is_stmt 0 discriminator 1
 985 04b6 18C2     		sw	a4,0(a2)
  40:main.c        ****       if(*counter1==0 && *x2==-1 || *counter1==2 && *x1==-1){*x1=*x1+81;} if(*counter1==1 && *y2==-
 986              		.loc 1 40 70 is_stmt 1 discriminator 1
  40:main.c        ****       if(*counter1==0 && *x2==-1 || *counter1==2 && *x1==-1){*x1=*x1+81;} if(*counter1==1 && *y2==-
 987              		.loc 1 40 73 is_stmt 0 discriminator 1
 988 04b8 98C1     		sw	a4,0(a1)
  40:main.c        ****       if(*counter1==0 && *x2==-1 || *counter1==2 && *x1==-1){*x1=*x1+81;} if(*counter1==1 && *y2==-
 989              		.loc 1 40 78 is_stmt 1 discriminator 1
  40:main.c        ****       if(*counter1==0 && *x2==-1 || *counter1==2 && *x1==-1){*x1=*x1+81;} if(*counter1==1 && *y2==-
 990              		.loc 1 40 92 is_stmt 0 discriminator 1
 991 04ba 23A0E800 		sw	a4,0(a7)
  40:main.c        ****       if(*counter1==0 && *x2==-1 || *counter1==2 && *x1==-1){*x1=*x1+81;} if(*counter1==1 && *y2==-
 992              		.loc 1 40 97 is_stmt 1 discriminator 1
  40:main.c        ****       if(*counter1==0 && *x2==-1 || *counter1==2 && *x1==-1){*x1=*x1+81;} if(*counter1==1 && *y2==-
 993              		.loc 1 40 110 is_stmt 0 discriminator 1
 994 04be 23A00600 		sw	zero,0(a3)
  40:main.c        ****       if(*counter1==0 && *x2==-1 || *counter1==2 && *x1==-1){*x1=*x1+81;} if(*counter1==1 && *y2==-
 995              		.loc 1 40 114 is_stmt 1 discriminator 1
  40:main.c        ****       if(*counter1==0 && *x2==-1 || *counter1==2 && *x1==-1){*x1=*x1+81;} if(*counter1==1 && *y2==-
 996              		.loc 1 40 128 is_stmt 0 discriminator 1
 997 04c2 23200F00 		sw	zero,0(t5)
 998 04c6 85B3     		j	.L90
 999              	.L20:
  10:main.c        ****       if(*counter1==0 && *x2==-1 || *counter1==2 && *x1==-1){*x1=*x1+1;} if(*counter1==1 && *y2==-1
 1000              		.loc 1 10 24 is_stmt 1 discriminator 1
  10:main.c        ****       if(*counter1==0 && *x2==-1 || *counter1==2 && *x1==-1){*x1=*x1+1;} if(*counter1==1 && *y2==-1
 1001              		.loc 1 10 33 is_stmt 0 discriminator 1
 1002 04c8 23A00700 		sw	zero,0(a5)
  10:main.c        ****       if(*counter1==0 && *x2==-1 || *counter1==2 && *x1==-1){*x1=*x1+1;} if(*counter1==1 && *y2==-1
 1003              		.loc 1 10 36 is_stmt 1 discriminator 1
  10:main.c        ****       if(*counter1==0 && *x2==-1 || *counter1==2 && *x1==-1){*x1=*x1+1;} if(*counter1==1 && *y2==-1
 1004              		.loc 1 10 39 is_stmt 0 discriminator 1
 1005 04cc 7D57     		li	a4,-1
 1006 04ce 2320EE00 		sw	a4,0(t3)
  10:main.c        ****       if(*counter1==0 && *x2==-1 || *counter1==2 && *x1==-1){*x1=*x1+1;} if(*counter1==1 && *y2==-1
 1007              		.loc 1 10 43 is_stmt 1 discriminator 1
  10:main.c        ****       if(*counter1==0 && *x2==-1 || *counter1==2 && *x1==-1){*x1=*x1+1;} if(*counter1==1 && *y2==-1
 1008              		.loc 1 10 46 is_stmt 0 discriminator 1
 1009 04d2 23A0EE00 		sw	a4,0(t4)
  10:main.c        ****       if(*counter1==0 && *x2==-1 || *counter1==2 && *x1==-1){*x1=*x1+1;} if(*counter1==1 && *y2==-1
 1010              		.loc 1 10 50 is_stmt 1 discriminator 1
  10:main.c        ****       if(*counter1==0 && *x2==-1 || *counter1==2 && *x1==-1){*x1=*x1+1;} if(*counter1==1 && *y2==-1
 1011              		.loc 1 10 59 is_stmt 0 discriminator 1
 1012 04d6 2320E800 		sw	a4,0(a6)
  10:main.c        ****       if(*counter1==0 && *x2==-1 || *counter1==2 && *x1==-1){*x1=*x1+1;} if(*counter1==1 && *y2==-1
 1013              		.loc 1 10 63 is_stmt 1 discriminator 1
  10:main.c        ****       if(*counter1==0 && *x2==-1 || *counter1==2 && *x1==-1){*x1=*x1+1;} if(*counter1==1 && *y2==-1
 1014              		.loc 1 10 66 is_stmt 0 discriminator 1
GAS LISTING C:\Users\GTSAIN~1\AppData\Local\Temp\ccIslvt7.s 			page 28


 1015 04da 18C2     		sw	a4,0(a2)
  10:main.c        ****       if(*counter1==0 && *x2==-1 || *counter1==2 && *x1==-1){*x1=*x1+1;} if(*counter1==1 && *y2==-1
 1016              		.loc 1 10 70 is_stmt 1 discriminator 1
  10:main.c        ****       if(*counter1==0 && *x2==-1 || *counter1==2 && *x1==-1){*x1=*x1+1;} if(*counter1==1 && *y2==-1
 1017              		.loc 1 10 73 is_stmt 0 discriminator 1
 1018 04dc 98C1     		sw	a4,0(a1)
  10:main.c        ****       if(*counter1==0 && *x2==-1 || *counter1==2 && *x1==-1){*x1=*x1+1;} if(*counter1==1 && *y2==-1
 1019              		.loc 1 10 78 is_stmt 1 discriminator 1
  10:main.c        ****       if(*counter1==0 && *x2==-1 || *counter1==2 && *x1==-1){*x1=*x1+1;} if(*counter1==1 && *y2==-1
 1020              		.loc 1 10 92 is_stmt 0 discriminator 1
 1021 04de 23A0E800 		sw	a4,0(a7)
  10:main.c        ****       if(*counter1==0 && *x2==-1 || *counter1==2 && *x1==-1){*x1=*x1+1;} if(*counter1==1 && *y2==-1
 1022              		.loc 1 10 97 is_stmt 1 discriminator 1
  10:main.c        ****       if(*counter1==0 && *x2==-1 || *counter1==2 && *x1==-1){*x1=*x1+1;} if(*counter1==1 && *y2==-1
 1023              		.loc 1 10 110 is_stmt 0 discriminator 1
 1024 04e2 23A00600 		sw	zero,0(a3)
  10:main.c        ****       if(*counter1==0 && *x2==-1 || *counter1==2 && *x1==-1){*x1=*x1+1;} if(*counter1==1 && *y2==-1
 1025              		.loc 1 10 114 is_stmt 1 discriminator 1
  10:main.c        ****       if(*counter1==0 && *x2==-1 || *counter1==2 && *x1==-1){*x1=*x1+1;} if(*counter1==1 && *y2==-1
 1026              		.loc 1 10 128 is_stmt 0 discriminator 1
 1027 04e6 23200F00 		sw	zero,0(t5)
 1028 04ea 45B6     		j	.L21
 1029              	.L47:
  22:main.c        ****       if(*counter1==0 && *x2==-1 || *counter1==2 && *x1==-1){*x1=*x1+33;} if(*counter1==1 && *y2==-
 1030              		.loc 1 22 24 is_stmt 1 discriminator 1
  22:main.c        ****       if(*counter1==0 && *x2==-1 || *counter1==2 && *x1==-1){*x1=*x1+33;} if(*counter1==1 && *y2==-
 1031              		.loc 1 22 33 is_stmt 0 discriminator 1
 1032 04ec 23A00700 		sw	zero,0(a5)
  22:main.c        ****       if(*counter1==0 && *x2==-1 || *counter1==2 && *x1==-1){*x1=*x1+33;} if(*counter1==1 && *y2==-
 1033              		.loc 1 22 36 is_stmt 1 discriminator 1
  22:main.c        ****       if(*counter1==0 && *x2==-1 || *counter1==2 && *x1==-1){*x1=*x1+33;} if(*counter1==1 && *y2==-
 1034              		.loc 1 22 39 is_stmt 0 discriminator 1
 1035 04f0 7D57     		li	a4,-1
 1036 04f2 2320EE00 		sw	a4,0(t3)
  22:main.c        ****       if(*counter1==0 && *x2==-1 || *counter1==2 && *x1==-1){*x1=*x1+33;} if(*counter1==1 && *y2==-
 1037              		.loc 1 22 43 is_stmt 1 discriminator 1
  22:main.c        ****       if(*counter1==0 && *x2==-1 || *counter1==2 && *x1==-1){*x1=*x1+33;} if(*counter1==1 && *y2==-
 1038              		.loc 1 22 46 is_stmt 0 discriminator 1
 1039 04f6 23A0EE00 		sw	a4,0(t4)
  22:main.c        ****       if(*counter1==0 && *x2==-1 || *counter1==2 && *x1==-1){*x1=*x1+33;} if(*counter1==1 && *y2==-
 1040              		.loc 1 22 50 is_stmt 1 discriminator 1
  22:main.c        ****       if(*counter1==0 && *x2==-1 || *counter1==2 && *x1==-1){*x1=*x1+33;} if(*counter1==1 && *y2==-
 1041              		.loc 1 22 59 is_stmt 0 discriminator 1
 1042 04fa 2320E800 		sw	a4,0(a6)
  22:main.c        ****       if(*counter1==0 && *x2==-1 || *counter1==2 && *x1==-1){*x1=*x1+33;} if(*counter1==1 && *y2==-
 1043              		.loc 1 22 63 is_stmt 1 discriminator 1
  22:main.c        ****       if(*counter1==0 && *x2==-1 || *counter1==2 && *x1==-1){*x1=*x1+33;} if(*counter1==1 && *y2==-
 1044              		.loc 1 22 66 is_stmt 0 discriminator 1
 1045 04fe 18C2     		sw	a4,0(a2)
  22:main.c        ****       if(*counter1==0 && *x2==-1 || *counter1==2 && *x1==-1){*x1=*x1+33;} if(*counter1==1 && *y2==-
 1046              		.loc 1 22 70 is_stmt 1 discriminator 1
  22:main.c        ****       if(*counter1==0 && *x2==-1 || *counter1==2 && *x1==-1){*x1=*x1+33;} if(*counter1==1 && *y2==-
 1047              		.loc 1 22 73 is_stmt 0 discriminator 1
 1048 0500 98C1     		sw	a4,0(a1)
  22:main.c        ****       if(*counter1==0 && *x2==-1 || *counter1==2 && *x1==-1){*x1=*x1+33;} if(*counter1==1 && *y2==-
 1049              		.loc 1 22 78 is_stmt 1 discriminator 1
  22:main.c        ****       if(*counter1==0 && *x2==-1 || *counter1==2 && *x1==-1){*x1=*x1+33;} if(*counter1==1 && *y2==-
GAS LISTING C:\Users\GTSAIN~1\AppData\Local\Temp\ccIslvt7.s 			page 29


 1050              		.loc 1 22 92 is_stmt 0 discriminator 1
 1051 0502 23A0E800 		sw	a4,0(a7)
  22:main.c        ****       if(*counter1==0 && *x2==-1 || *counter1==2 && *x1==-1){*x1=*x1+33;} if(*counter1==1 && *y2==-
 1052              		.loc 1 22 97 is_stmt 1 discriminator 1
  22:main.c        ****       if(*counter1==0 && *x2==-1 || *counter1==2 && *x1==-1){*x1=*x1+33;} if(*counter1==1 && *y2==-
 1053              		.loc 1 22 110 is_stmt 0 discriminator 1
 1054 0506 23A00600 		sw	zero,0(a3)
  22:main.c        ****       if(*counter1==0 && *x2==-1 || *counter1==2 && *x1==-1){*x1=*x1+33;} if(*counter1==1 && *y2==-
 1055              		.loc 1 22 114 is_stmt 1 discriminator 1
  22:main.c        ****       if(*counter1==0 && *x2==-1 || *counter1==2 && *x1==-1){*x1=*x1+33;} if(*counter1==1 && *y2==-
 1056              		.loc 1 22 128 is_stmt 0 discriminator 1
 1057 050a 23200F00 		sw	zero,0(t5)
 1058 050e 11B9     		j	.L48
 1059              	.L117:
  52:main.c        ****       if(*counter1==0 && *x2==-1 || *counter1==2 && *x1==-1){*x1=*x1+113;} if(*counter1==1 && *y2==
 1060              		.loc 1 52 24 is_stmt 1 discriminator 1
  52:main.c        ****       if(*counter1==0 && *x2==-1 || *counter1==2 && *x1==-1){*x1=*x1+113;} if(*counter1==1 && *y2==
 1061              		.loc 1 52 33 is_stmt 0 discriminator 1
 1062 0510 23A00700 		sw	zero,0(a5)
  52:main.c        ****       if(*counter1==0 && *x2==-1 || *counter1==2 && *x1==-1){*x1=*x1+113;} if(*counter1==1 && *y2==
 1063              		.loc 1 52 36 is_stmt 1 discriminator 1
  52:main.c        ****       if(*counter1==0 && *x2==-1 || *counter1==2 && *x1==-1){*x1=*x1+113;} if(*counter1==1 && *y2==
 1064              		.loc 1 52 39 is_stmt 0 discriminator 1
 1065 0514 7D57     		li	a4,-1
 1066 0516 2320EE00 		sw	a4,0(t3)
  52:main.c        ****       if(*counter1==0 && *x2==-1 || *counter1==2 && *x1==-1){*x1=*x1+113;} if(*counter1==1 && *y2==
 1067              		.loc 1 52 43 is_stmt 1 discriminator 1
  52:main.c        ****       if(*counter1==0 && *x2==-1 || *counter1==2 && *x1==-1){*x1=*x1+113;} if(*counter1==1 && *y2==
 1068              		.loc 1 52 46 is_stmt 0 discriminator 1
 1069 051a 23A0EE00 		sw	a4,0(t4)
  52:main.c        ****       if(*counter1==0 && *x2==-1 || *counter1==2 && *x1==-1){*x1=*x1+113;} if(*counter1==1 && *y2==
 1070              		.loc 1 52 50 is_stmt 1 discriminator 1
  52:main.c        ****       if(*counter1==0 && *x2==-1 || *counter1==2 && *x1==-1){*x1=*x1+113;} if(*counter1==1 && *y2==
 1071              		.loc 1 52 59 is_stmt 0 discriminator 1
 1072 051e 2320E800 		sw	a4,0(a6)
  52:main.c        ****       if(*counter1==0 && *x2==-1 || *counter1==2 && *x1==-1){*x1=*x1+113;} if(*counter1==1 && *y2==
 1073              		.loc 1 52 63 is_stmt 1 discriminator 1
  52:main.c        ****       if(*counter1==0 && *x2==-1 || *counter1==2 && *x1==-1){*x1=*x1+113;} if(*counter1==1 && *y2==
 1074              		.loc 1 52 66 is_stmt 0 discriminator 1
 1075 0522 18C2     		sw	a4,0(a2)
  52:main.c        ****       if(*counter1==0 && *x2==-1 || *counter1==2 && *x1==-1){*x1=*x1+113;} if(*counter1==1 && *y2==
 1076              		.loc 1 52 70 is_stmt 1 discriminator 1
  52:main.c        ****       if(*counter1==0 && *x2==-1 || *counter1==2 && *x1==-1){*x1=*x1+113;} if(*counter1==1 && *y2==
 1077              		.loc 1 52 73 is_stmt 0 discriminator 1
 1078 0524 98C1     		sw	a4,0(a1)
  52:main.c        ****       if(*counter1==0 && *x2==-1 || *counter1==2 && *x1==-1){*x1=*x1+113;} if(*counter1==1 && *y2==
 1079              		.loc 1 52 78 is_stmt 1 discriminator 1
  52:main.c        ****       if(*counter1==0 && *x2==-1 || *counter1==2 && *x1==-1){*x1=*x1+113;} if(*counter1==1 && *y2==
 1080              		.loc 1 52 92 is_stmt 0 discriminator 1
 1081 0526 23A0E800 		sw	a4,0(a7)
  52:main.c        ****       if(*counter1==0 && *x2==-1 || *counter1==2 && *x1==-1){*x1=*x1+113;} if(*counter1==1 && *y2==
 1082              		.loc 1 52 97 is_stmt 1 discriminator 1
  52:main.c        ****       if(*counter1==0 && *x2==-1 || *counter1==2 && *x1==-1){*x1=*x1+113;} if(*counter1==1 && *y2==
 1083              		.loc 1 52 110 is_stmt 0 discriminator 1
 1084 052a 23A00600 		sw	zero,0(a3)
  52:main.c        ****       if(*counter1==0 && *x2==-1 || *counter1==2 && *x1==-1){*x1=*x1+113;} if(*counter1==1 && *y2==
 1085              		.loc 1 52 114 is_stmt 1 discriminator 1
GAS LISTING C:\Users\GTSAIN~1\AppData\Local\Temp\ccIslvt7.s 			page 30


  52:main.c        ****       if(*counter1==0 && *x2==-1 || *counter1==2 && *x1==-1){*x1=*x1+113;} if(*counter1==1 && *y2==
 1086              		.loc 1 52 128 is_stmt 0 discriminator 1
 1087 052e 23200F00 		sw	zero,0(t5)
 1088 0532 55B3     		j	.L118
 1089              	.L103:
  46:main.c        ****       if(*counter1==0 && *x2==-1 || *counter1==2 && *x1==-1){*x1=*x1+97;} if(*counter1==1 && *y2==-
 1090              		.loc 1 46 24 is_stmt 1 discriminator 1
  46:main.c        ****       if(*counter1==0 && *x2==-1 || *counter1==2 && *x1==-1){*x1=*x1+97;} if(*counter1==1 && *y2==-
 1091              		.loc 1 46 33 is_stmt 0 discriminator 1
 1092 0534 23A00700 		sw	zero,0(a5)
  46:main.c        ****       if(*counter1==0 && *x2==-1 || *counter1==2 && *x1==-1){*x1=*x1+97;} if(*counter1==1 && *y2==-
 1093              		.loc 1 46 36 is_stmt 1 discriminator 1
  46:main.c        ****       if(*counter1==0 && *x2==-1 || *counter1==2 && *x1==-1){*x1=*x1+97;} if(*counter1==1 && *y2==-
 1094              		.loc 1 46 39 is_stmt 0 discriminator 1
 1095 0538 7D57     		li	a4,-1
 1096 053a 2320EE00 		sw	a4,0(t3)
  46:main.c        ****       if(*counter1==0 && *x2==-1 || *counter1==2 && *x1==-1){*x1=*x1+97;} if(*counter1==1 && *y2==-
 1097              		.loc 1 46 43 is_stmt 1 discriminator 1
  46:main.c        ****       if(*counter1==0 && *x2==-1 || *counter1==2 && *x1==-1){*x1=*x1+97;} if(*counter1==1 && *y2==-
 1098              		.loc 1 46 46 is_stmt 0 discriminator 1
 1099 053e 23A0EE00 		sw	a4,0(t4)
  46:main.c        ****       if(*counter1==0 && *x2==-1 || *counter1==2 && *x1==-1){*x1=*x1+97;} if(*counter1==1 && *y2==-
 1100              		.loc 1 46 50 is_stmt 1 discriminator 1
  46:main.c        ****       if(*counter1==0 && *x2==-1 || *counter1==2 && *x1==-1){*x1=*x1+97;} if(*counter1==1 && *y2==-
 1101              		.loc 1 46 59 is_stmt 0 discriminator 1
 1102 0542 2320E800 		sw	a4,0(a6)
  46:main.c        ****       if(*counter1==0 && *x2==-1 || *counter1==2 && *x1==-1){*x1=*x1+97;} if(*counter1==1 && *y2==-
 1103              		.loc 1 46 63 is_stmt 1 discriminator 1
  46:main.c        ****       if(*counter1==0 && *x2==-1 || *counter1==2 && *x1==-1){*x1=*x1+97;} if(*counter1==1 && *y2==-
 1104              		.loc 1 46 66 is_stmt 0 discriminator 1
 1105 0546 18C2     		sw	a4,0(a2)
  46:main.c        ****       if(*counter1==0 && *x2==-1 || *counter1==2 && *x1==-1){*x1=*x1+97;} if(*counter1==1 && *y2==-
 1106              		.loc 1 46 70 is_stmt 1 discriminator 1
  46:main.c        ****       if(*counter1==0 && *x2==-1 || *counter1==2 && *x1==-1){*x1=*x1+97;} if(*counter1==1 && *y2==-
 1107              		.loc 1 46 73 is_stmt 0 discriminator 1
 1108 0548 98C1     		sw	a4,0(a1)
  46:main.c        ****       if(*counter1==0 && *x2==-1 || *counter1==2 && *x1==-1){*x1=*x1+97;} if(*counter1==1 && *y2==-
 1109              		.loc 1 46 78 is_stmt 1 discriminator 1
  46:main.c        ****       if(*counter1==0 && *x2==-1 || *counter1==2 && *x1==-1){*x1=*x1+97;} if(*counter1==1 && *y2==-
 1110              		.loc 1 46 92 is_stmt 0 discriminator 1
 1111 054a 23A0E800 		sw	a4,0(a7)
  46:main.c        ****       if(*counter1==0 && *x2==-1 || *counter1==2 && *x1==-1){*x1=*x1+97;} if(*counter1==1 && *y2==-
 1112              		.loc 1 46 97 is_stmt 1 discriminator 1
  46:main.c        ****       if(*counter1==0 && *x2==-1 || *counter1==2 && *x1==-1){*x1=*x1+97;} if(*counter1==1 && *y2==-
 1113              		.loc 1 46 110 is_stmt 0 discriminator 1
 1114 054e 23A00600 		sw	zero,0(a3)
  46:main.c        ****       if(*counter1==0 && *x2==-1 || *counter1==2 && *x1==-1){*x1=*x1+97;} if(*counter1==1 && *y2==-
 1115              		.loc 1 46 114 is_stmt 1 discriminator 1
  46:main.c        ****       if(*counter1==0 && *x2==-1 || *counter1==2 && *x1==-1){*x1=*x1+97;} if(*counter1==1 && *y2==-
 1116              		.loc 1 46 128 is_stmt 0 discriminator 1
 1117 0552 23200F00 		sw	zero,0(t5)
 1118 0556 25B3     		j	.L104
 1119              	.L131:
  58:main.c        ****       if(*counter1==0 && *x2==-1 || *counter1==2 && *x1==-1){*x1=*x1+129;} if(*counter1==1 && *y2==
 1120              		.loc 1 58 24 is_stmt 1 discriminator 1
  58:main.c        ****       if(*counter1==0 && *x2==-1 || *counter1==2 && *x1==-1){*x1=*x1+129;} if(*counter1==1 && *y2==
 1121              		.loc 1 58 33 is_stmt 0 discriminator 1
GAS LISTING C:\Users\GTSAIN~1\AppData\Local\Temp\ccIslvt7.s 			page 31


 1122 0558 23A00700 		sw	zero,0(a5)
  58:main.c        ****       if(*counter1==0 && *x2==-1 || *counter1==2 && *x1==-1){*x1=*x1+129;} if(*counter1==1 && *y2==
 1123              		.loc 1 58 36 is_stmt 1 discriminator 1
  58:main.c        ****       if(*counter1==0 && *x2==-1 || *counter1==2 && *x1==-1){*x1=*x1+129;} if(*counter1==1 && *y2==
 1124              		.loc 1 58 39 is_stmt 0 discriminator 1
 1125 055c 7D57     		li	a4,-1
 1126 055e 2320EE00 		sw	a4,0(t3)
  58:main.c        ****       if(*counter1==0 && *x2==-1 || *counter1==2 && *x1==-1){*x1=*x1+129;} if(*counter1==1 && *y2==
 1127              		.loc 1 58 43 is_stmt 1 discriminator 1
  58:main.c        ****       if(*counter1==0 && *x2==-1 || *counter1==2 && *x1==-1){*x1=*x1+129;} if(*counter1==1 && *y2==
 1128              		.loc 1 58 46 is_stmt 0 discriminator 1
 1129 0562 23A0EE00 		sw	a4,0(t4)
  58:main.c        ****       if(*counter1==0 && *x2==-1 || *counter1==2 && *x1==-1){*x1=*x1+129;} if(*counter1==1 && *y2==
 1130              		.loc 1 58 50 is_stmt 1 discriminator 1
  58:main.c        ****       if(*counter1==0 && *x2==-1 || *counter1==2 && *x1==-1){*x1=*x1+129;} if(*counter1==1 && *y2==
 1131              		.loc 1 58 59 is_stmt 0 discriminator 1
 1132 0566 2320E800 		sw	a4,0(a6)
  58:main.c        ****       if(*counter1==0 && *x2==-1 || *counter1==2 && *x1==-1){*x1=*x1+129;} if(*counter1==1 && *y2==
 1133              		.loc 1 58 63 is_stmt 1 discriminator 1
  58:main.c        ****       if(*counter1==0 && *x2==-1 || *counter1==2 && *x1==-1){*x1=*x1+129;} if(*counter1==1 && *y2==
 1134              		.loc 1 58 66 is_stmt 0 discriminator 1
 1135 056a 18C2     		sw	a4,0(a2)
  58:main.c        ****       if(*counter1==0 && *x2==-1 || *counter1==2 && *x1==-1){*x1=*x1+129;} if(*counter1==1 && *y2==
 1136              		.loc 1 58 70 is_stmt 1 discriminator 1
  58:main.c        ****       if(*counter1==0 && *x2==-1 || *counter1==2 && *x1==-1){*x1=*x1+129;} if(*counter1==1 && *y2==
 1137              		.loc 1 58 73 is_stmt 0 discriminator 1
 1138 056c 98C1     		sw	a4,0(a1)
  58:main.c        ****       if(*counter1==0 && *x2==-1 || *counter1==2 && *x1==-1){*x1=*x1+129;} if(*counter1==1 && *y2==
 1139              		.loc 1 58 78 is_stmt 1 discriminator 1
  58:main.c        ****       if(*counter1==0 && *x2==-1 || *counter1==2 && *x1==-1){*x1=*x1+129;} if(*counter1==1 && *y2==
 1140              		.loc 1 58 92 is_stmt 0 discriminator 1
 1141 056e 23A0E800 		sw	a4,0(a7)
  58:main.c        ****       if(*counter1==0 && *x2==-1 || *counter1==2 && *x1==-1){*x1=*x1+129;} if(*counter1==1 && *y2==
 1142              		.loc 1 58 97 is_stmt 1 discriminator 1
  58:main.c        ****       if(*counter1==0 && *x2==-1 || *counter1==2 && *x1==-1){*x1=*x1+129;} if(*counter1==1 && *y2==
 1143              		.loc 1 58 110 is_stmt 0 discriminator 1
 1144 0572 23A00600 		sw	zero,0(a3)
  58:main.c        ****       if(*counter1==0 && *x2==-1 || *counter1==2 && *x1==-1){*x1=*x1+129;} if(*counter1==1 && *y2==
 1145              		.loc 1 58 114 is_stmt 1 discriminator 1
  58:main.c        ****       if(*counter1==0 && *x2==-1 || *counter1==2 && *x1==-1){*x1=*x1+129;} if(*counter1==1 && *y2==
 1146              		.loc 1 58 128 is_stmt 0 discriminator 1
 1147 0576 23200F00 		sw	zero,0(t5)
 1148 057a 55BB     		j	.L132
 1149              	.L145:
  64:main.c        ****       if(*counter1==0 && *x2==-1|| *counter1==2 && *x1==-1){*x1=*x1+160;} if(*counter1==1 && *y2==-
 1150              		.loc 1 64 24 is_stmt 1 discriminator 1
  64:main.c        ****       if(*counter1==0 && *x2==-1|| *counter1==2 && *x1==-1){*x1=*x1+160;} if(*counter1==1 && *y2==-
 1151              		.loc 1 64 33 is_stmt 0 discriminator 1
 1152 057c 23A00700 		sw	zero,0(a5)
  64:main.c        ****       if(*counter1==0 && *x2==-1|| *counter1==2 && *x1==-1){*x1=*x1+160;} if(*counter1==1 && *y2==-
 1153              		.loc 1 64 36 is_stmt 1 discriminator 1
  64:main.c        ****       if(*counter1==0 && *x2==-1|| *counter1==2 && *x1==-1){*x1=*x1+160;} if(*counter1==1 && *y2==-
 1154              		.loc 1 64 39 is_stmt 0 discriminator 1
 1155 0580 7D57     		li	a4,-1
 1156 0582 2320EE00 		sw	a4,0(t3)
  64:main.c        ****       if(*counter1==0 && *x2==-1|| *counter1==2 && *x1==-1){*x1=*x1+160;} if(*counter1==1 && *y2==-
 1157              		.loc 1 64 43 is_stmt 1 discriminator 1
GAS LISTING C:\Users\GTSAIN~1\AppData\Local\Temp\ccIslvt7.s 			page 32


  64:main.c        ****       if(*counter1==0 && *x2==-1|| *counter1==2 && *x1==-1){*x1=*x1+160;} if(*counter1==1 && *y2==-
 1158              		.loc 1 64 46 is_stmt 0 discriminator 1
 1159 0586 23A0EE00 		sw	a4,0(t4)
  64:main.c        ****       if(*counter1==0 && *x2==-1|| *counter1==2 && *x1==-1){*x1=*x1+160;} if(*counter1==1 && *y2==-
 1160              		.loc 1 64 50 is_stmt 1 discriminator 1
  64:main.c        ****       if(*counter1==0 && *x2==-1|| *counter1==2 && *x1==-1){*x1=*x1+160;} if(*counter1==1 && *y2==-
 1161              		.loc 1 64 59 is_stmt 0 discriminator 1
 1162 058a 2320E800 		sw	a4,0(a6)
  64:main.c        ****       if(*counter1==0 && *x2==-1|| *counter1==2 && *x1==-1){*x1=*x1+160;} if(*counter1==1 && *y2==-
 1163              		.loc 1 64 63 is_stmt 1 discriminator 1
  64:main.c        ****       if(*counter1==0 && *x2==-1|| *counter1==2 && *x1==-1){*x1=*x1+160;} if(*counter1==1 && *y2==-
 1164              		.loc 1 64 66 is_stmt 0 discriminator 1
 1165 058e 18C2     		sw	a4,0(a2)
  64:main.c        ****       if(*counter1==0 && *x2==-1|| *counter1==2 && *x1==-1){*x1=*x1+160;} if(*counter1==1 && *y2==-
 1166              		.loc 1 64 70 is_stmt 1 discriminator 1
  64:main.c        ****       if(*counter1==0 && *x2==-1|| *counter1==2 && *x1==-1){*x1=*x1+160;} if(*counter1==1 && *y2==-
 1167              		.loc 1 64 73 is_stmt 0 discriminator 1
 1168 0590 98C1     		sw	a4,0(a1)
  64:main.c        ****       if(*counter1==0 && *x2==-1|| *counter1==2 && *x1==-1){*x1=*x1+160;} if(*counter1==1 && *y2==-
 1169              		.loc 1 64 78 is_stmt 1 discriminator 1
  64:main.c        ****       if(*counter1==0 && *x2==-1|| *counter1==2 && *x1==-1){*x1=*x1+160;} if(*counter1==1 && *y2==-
 1170              		.loc 1 64 92 is_stmt 0 discriminator 1
 1171 0592 23A0E800 		sw	a4,0(a7)
  64:main.c        ****       if(*counter1==0 && *x2==-1|| *counter1==2 && *x1==-1){*x1=*x1+160;} if(*counter1==1 && *y2==-
 1172              		.loc 1 64 97 is_stmt 1 discriminator 1
  64:main.c        ****       if(*counter1==0 && *x2==-1|| *counter1==2 && *x1==-1){*x1=*x1+160;} if(*counter1==1 && *y2==-
 1173              		.loc 1 64 110 is_stmt 0 discriminator 1
 1174 0596 23A00600 		sw	zero,0(a3)
  64:main.c        ****       if(*counter1==0 && *x2==-1|| *counter1==2 && *x1==-1){*x1=*x1+160;} if(*counter1==1 && *y2==-
 1175              		.loc 1 64 114 is_stmt 1 discriminator 1
  64:main.c        ****       if(*counter1==0 && *x2==-1|| *counter1==2 && *x1==-1){*x1=*x1+160;} if(*counter1==1 && *y2==-
 1176              		.loc 1 64 128 is_stmt 0 discriminator 1
 1177 059a 23200F00 		sw	zero,0(t5)
 1178 059e 9843     		lw	a4,0(a5)
 1179 05a0 DDB3     		j	.L146
 1180              	.LVL47:
 1181              	.L183:
  71:main.c        **** 
 1182              		.loc 1 71 32 is_stmt 1 discriminator 1
  71:main.c        **** 
 1183              		.loc 1 71 35 is_stmt 0 discriminator 1
 1184 05a2 18C2     		sw	a4,0(a2)
  71:main.c        **** 
 1185              		.loc 1 71 41 is_stmt 1 discriminator 1
  71:main.c        **** 
 1186              		.loc 1 71 45 is_stmt 0 discriminator 1
 1187 05a4 03A70E00 		lw	a4,0(t4)
  71:main.c        **** 
 1188              		.loc 1 71 44 discriminator 1
 1189 05a8 98C1     		sw	a4,0(a1)
  71:main.c        **** 
 1190              		.loc 1 71 50 is_stmt 1 discriminator 1
  71:main.c        **** 
 1191              		.loc 1 71 53 is_stmt 0 discriminator 1
 1192 05aa 23A0FE00 		sw	a5,0(t4)
  71:main.c        **** 
 1193              		.loc 1 71 58 is_stmt 1 discriminator 1
GAS LISTING C:\Users\GTSAIN~1\AppData\Local\Temp\ccIslvt7.s 			page 33


  71:main.c        **** 
 1194              		.loc 1 71 61 is_stmt 0 discriminator 1
 1195 05ae 2320FE00 		sw	a5,0(t3)
  71:main.c        **** 
 1196              		.loc 1 71 67 is_stmt 1 discriminator 1
 1197 05b2 8280     		ret
 1198              	.LVL48:
 1199              	.L184:
  73:main.c        ****              if(*colourchoice==0){*colourDisplay=65535; return;}//WHITE
 1200              		.loc 1 73 35 discriminator 1
  73:main.c        ****              if(*colourchoice==0){*colourDisplay=65535; return;}//WHITE
 1201              		.loc 1 73 44 is_stmt 0 discriminator 1
 1202 05b4 7D57     		li	a4,-1
 1203 05b6 98C3     		sw	a4,0(a5)
  73:main.c        ****              if(*colourchoice==0){*colourDisplay=65535; return;}//WHITE
 1204              		.loc 1 73 49 is_stmt 1 discriminator 1
  73:main.c        ****              if(*colourchoice==0){*colourDisplay=65535; return;}//WHITE
 1205              		.loc 1 73 58 is_stmt 0 discriminator 1
 1206 05b8 2320E800 		sw	a4,0(a6)
  73:main.c        ****              if(*colourchoice==0){*colourDisplay=65535; return;}//WHITE
 1207              		.loc 1 73 63 is_stmt 1 discriminator 1
  73:main.c        ****              if(*colourchoice==0){*colourDisplay=65535; return;}//WHITE
 1208              		.loc 1 73 66 is_stmt 0 discriminator 1
 1209 05bc 2320EE00 		sw	a4,0(t3)
  73:main.c        ****              if(*colourchoice==0){*colourDisplay=65535; return;}//WHITE
 1210              		.loc 1 73 71 is_stmt 1 discriminator 1
  73:main.c        ****              if(*colourchoice==0){*colourDisplay=65535; return;}//WHITE
 1211              		.loc 1 73 74 is_stmt 0 discriminator 1
 1212 05c0 23A0EE00 		sw	a4,0(t4)
  73:main.c        ****              if(*colourchoice==0){*colourDisplay=65535; return;}//WHITE
 1213              		.loc 1 73 79 is_stmt 1 discriminator 1
  73:main.c        ****              if(*colourchoice==0){*colourDisplay=65535; return;}//WHITE
 1214              		.loc 1 73 82 is_stmt 0 discriminator 1
 1215 05c4 18C2     		sw	a4,0(a2)
  73:main.c        ****              if(*colourchoice==0){*colourDisplay=65535; return;}//WHITE
 1216              		.loc 1 73 87 is_stmt 1 discriminator 1
  73:main.c        ****              if(*colourchoice==0){*colourDisplay=65535; return;}//WHITE
 1217              		.loc 1 73 90 is_stmt 0 discriminator 1
 1218 05c6 98C1     		sw	a4,0(a1)
  73:main.c        ****              if(*colourchoice==0){*colourDisplay=65535; return;}//WHITE
 1219              		.loc 1 73 95 is_stmt 1 discriminator 1
 1220 05c8 8280     		ret
 1221              	.L147:
  65:main.c        ****       if(*counter2>-1){*counter2=*counter2+1; if(*counter2==2){*y2=*y2+81;} if(*counter2==1){*x2=*x
 1222              		.loc 1 65 33 is_stmt 0 discriminator 4
 1223 05ca 0945     		li	a0,2
 1224 05cc 631CA700 		bne	a4,a0,.L151
  65:main.c        ****       if(*counter2>-1){*counter2=*counter2+1; if(*counter2==2){*y2=*y2+81;} if(*counter2==1){*x2=*x
 1225              		.loc 1 65 52 discriminator 5
 1226 05d0 03270E00 		lw	a4,0(t3)
  65:main.c        ****       if(*counter2>-1){*counter2=*counter2+1; if(*counter2==2){*y2=*y2+81;} if(*counter2==1){*x2=*x
 1227              		.loc 1 65 49 discriminator 5
 1228 05d4 7D55     		li	a0,-1
 1229 05d6 E31EA7DA 		bne	a4,a0,.L149
 1230              	.L150:
  65:main.c        ****       if(*counter2>-1){*counter2=*counter2+1; if(*counter2==2){*y2=*y2+81;} if(*counter2==1){*x2=*x
 1231              		.loc 1 65 61 is_stmt 1 discriminator 7
GAS LISTING C:\Users\GTSAIN~1\AppData\Local\Temp\ccIslvt7.s 			page 34


  65:main.c        ****       if(*counter2>-1){*counter2=*counter2+1; if(*counter2==2){*y2=*y2+81;} if(*counter2==1){*x2=*x
 1232              		.loc 1 65 68 is_stmt 0 discriminator 7
 1233 05da 1307070A 		addi	a4,a4,160
  65:main.c        ****       if(*counter2>-1){*counter2=*counter2+1; if(*counter2==2){*y2=*y2+81;} if(*counter2==1){*x2=*x
 1234              		.loc 1 65 64 discriminator 7
 1235 05de 2320EE00 		sw	a4,0(t3)
 1236 05e2 9843     		lw	a4,0(a5)
 1237              	.L151:
  65:main.c        ****       if(*counter2>-1){*counter2=*counter2+1; if(*counter2==2){*y2=*y2+81;} if(*counter2==1){*x2=*x
 1238              		.loc 1 65 75 is_stmt 1 discriminator 9
  65:main.c        ****       if(*counter2>-1){*counter2=*counter2+1; if(*counter2==2){*y2=*y2+81;} if(*counter2==1){*x2=*x
 1239              		.loc 1 65 77 is_stmt 0 discriminator 9
 1240 05e4 8547     		li	a5,1
 1241              	.LVL49:
 1242 05e6 631AF71E 		bne	a4,a5,.L153
  65:main.c        ****       if(*counter2>-1){*counter2=*counter2+1; if(*counter2==2){*y2=*y2+81;} if(*counter2==1){*x2=*x
 1243              		.loc 1 65 91 discriminator 10
 1244 05ea 9841     		lw	a4,0(a1)
 1245 05ec FD57     		li	a5,-1
 1246 05ee E312F7DA 		bne	a4,a5,.L149
 1247 05f2 83A70E00 		lw	a5,0(t4)
 1248              	.L154:
  65:main.c        ****       if(*counter2>-1){*counter2=*counter2+1; if(*counter2==2){*y2=*y2+81;} if(*counter2==1){*x2=*x
 1249              		.loc 1 65 130 is_stmt 1 discriminator 15
  65:main.c        ****       if(*counter2>-1){*counter2=*counter2+1; if(*counter2==2){*y2=*y2+81;} if(*counter2==1){*x2=*x
 1250              		.loc 1 65 137 is_stmt 0 discriminator 15
 1251 05f6 93871705 		addi	a5,a5,81
  65:main.c        ****       if(*counter2>-1){*counter2=*counter2+1; if(*counter2==2){*y2=*y2+81;} if(*counter2==1){*x2=*x
 1252              		.loc 1 65 133 discriminator 15
 1253 05fa 23A0FE00 		sw	a5,0(t4)
 1254 05fe 51BB     		j	.L149
 1255              	.LVL50:
 1256              	.L105:
  47:main.c        ****       if(*counter2>-1){*counter2=*counter2+1; if(*counter2==2){*y2=*y2+49;} if(*counter2==1){*x2=*x
 1257              		.loc 1 47 34 discriminator 4
 1258 0600 0945     		li	a0,2
 1259 0602 631CA700 		bne	a4,a0,.L109
  47:main.c        ****       if(*counter2>-1){*counter2=*counter2+1; if(*counter2==2){*y2=*y2+49;} if(*counter2==1){*x2=*x
 1260              		.loc 1 47 53 discriminator 5
 1261 0606 03270E00 		lw	a4,0(t3)
  47:main.c        ****       if(*counter2>-1){*counter2=*counter2+1; if(*counter2==2){*y2=*y2+49;} if(*counter2==1){*x2=*x
 1262              		.loc 1 47 50 discriminator 5
 1263 060a 7D55     		li	a0,-1
 1264 060c E310A7C8 		bne	a4,a0,.L107
 1265              	.L108:
  47:main.c        ****       if(*counter2>-1){*counter2=*counter2+1; if(*counter2==2){*y2=*y2+49;} if(*counter2==1){*x2=*x
 1266              		.loc 1 47 62 is_stmt 1 discriminator 7
  47:main.c        ****       if(*counter2>-1){*counter2=*counter2+1; if(*counter2==2){*y2=*y2+49;} if(*counter2==1){*x2=*x
 1267              		.loc 1 47 69 is_stmt 0 discriminator 7
 1268 0610 13071706 		addi	a4,a4,97
  47:main.c        ****       if(*counter2>-1){*counter2=*counter2+1; if(*counter2==2){*y2=*y2+49;} if(*counter2==1){*x2=*x
 1269              		.loc 1 47 65 discriminator 7
 1270 0614 2320EE00 		sw	a4,0(t3)
 1271 0618 9843     		lw	a4,0(a5)
 1272              	.L109:
  47:main.c        ****       if(*counter2>-1){*counter2=*counter2+1; if(*counter2==2){*y2=*y2+49;} if(*counter2==1){*x2=*x
 1273              		.loc 1 47 75 is_stmt 1 discriminator 9
GAS LISTING C:\Users\GTSAIN~1\AppData\Local\Temp\ccIslvt7.s 			page 35


  47:main.c        ****       if(*counter2>-1){*counter2=*counter2+1; if(*counter2==2){*y2=*y2+49;} if(*counter2==1){*x2=*x
 1274              		.loc 1 47 77 is_stmt 0 discriminator 9
 1275 061a 8547     		li	a5,1
 1276              	.LVL51:
 1277 061c 631CF720 		bne	a4,a5,.L111
  47:main.c        ****       if(*counter2>-1){*counter2=*counter2+1; if(*counter2==2){*y2=*y2+49;} if(*counter2==1){*x2=*x
 1278              		.loc 1 47 91 discriminator 10
 1279 0620 9841     		lw	a4,0(a1)
 1280 0622 FD57     		li	a5,-1
 1281 0624 E314F7C6 		bne	a4,a5,.L107
 1282 0628 83A70E00 		lw	a5,0(t4)
 1283              	.L112:
  47:main.c        ****       if(*counter2>-1){*counter2=*counter2+1; if(*counter2==2){*y2=*y2+49;} if(*counter2==1){*x2=*x
 1284              		.loc 1 47 130 is_stmt 1 discriminator 15
  47:main.c        ****       if(*counter2>-1){*counter2=*counter2+1; if(*counter2==2){*y2=*y2+49;} if(*counter2==1){*x2=*x
 1285              		.loc 1 47 137 is_stmt 0 discriminator 15
 1286 062c 93871703 		addi	a5,a5,49
  47:main.c        ****       if(*counter2>-1){*counter2=*counter2+1; if(*counter2==2){*y2=*y2+49;} if(*counter2==1){*x2=*x
 1287              		.loc 1 47 133 discriminator 15
 1288 0630 23A0FE00 		sw	a5,0(t4)
 1289 0634 A1B9     		j	.L107
 1290              	.LVL52:
 1291              	.L119:
  53:main.c        ****       if(*counter2>-1){*counter2=*counter2+1; if(*counter2==2){*x2=*y2+57;} if(*counter2==1){*y2=*x
 1292              		.loc 1 53 34 discriminator 4
 1293 0636 0945     		li	a0,2
 1294 0638 631CA700 		bne	a4,a0,.L123
  53:main.c        ****       if(*counter2>-1){*counter2=*counter2+1; if(*counter2==2){*x2=*y2+57;} if(*counter2==1){*y2=*x
 1295              		.loc 1 53 53 discriminator 5
 1296 063c 03270E00 		lw	a4,0(t3)
  53:main.c        ****       if(*counter2>-1){*counter2=*counter2+1; if(*counter2==2){*x2=*y2+57;} if(*counter2==1){*y2=*x
 1297              		.loc 1 53 50 discriminator 5
 1298 0640 7D55     		li	a0,-1
 1299 0642 E311A7CA 		bne	a4,a0,.L121
 1300              	.L122:
  53:main.c        ****       if(*counter2>-1){*counter2=*counter2+1; if(*counter2==2){*x2=*y2+57;} if(*counter2==1){*y2=*x
 1301              		.loc 1 53 62 is_stmt 1 discriminator 7
  53:main.c        ****       if(*counter2>-1){*counter2=*counter2+1; if(*counter2==2){*x2=*y2+57;} if(*counter2==1){*y2=*x
 1302              		.loc 1 53 69 is_stmt 0 discriminator 7
 1303 0646 13071707 		addi	a4,a4,113
  53:main.c        ****       if(*counter2>-1){*counter2=*counter2+1; if(*counter2==2){*x2=*y2+57;} if(*counter2==1){*y2=*x
 1304              		.loc 1 53 65 discriminator 7
 1305 064a 2320EE00 		sw	a4,0(t3)
 1306 064e 9843     		lw	a4,0(a5)
 1307              	.L123:
  53:main.c        ****       if(*counter2>-1){*counter2=*counter2+1; if(*counter2==2){*x2=*y2+57;} if(*counter2==1){*y2=*x
 1308              		.loc 1 53 76 is_stmt 1 discriminator 9
  53:main.c        ****       if(*counter2>-1){*counter2=*counter2+1; if(*counter2==2){*x2=*y2+57;} if(*counter2==1){*y2=*x
 1309              		.loc 1 53 78 is_stmt 0 discriminator 9
 1310 0650 8547     		li	a5,1
 1311              	.LVL53:
 1312 0652 6316F71A 		bne	a4,a5,.L125
  53:main.c        ****       if(*counter2>-1){*counter2=*counter2+1; if(*counter2==2){*x2=*y2+57;} if(*counter2==1){*y2=*x
 1313              		.loc 1 53 92 discriminator 10
 1314 0656 9841     		lw	a4,0(a1)
 1315 0658 FD57     		li	a5,-1
 1316 065a E315F7C8 		bne	a4,a5,.L121
GAS LISTING C:\Users\GTSAIN~1\AppData\Local\Temp\ccIslvt7.s 			page 36


 1317 065e 83A70E00 		lw	a5,0(t4)
 1318              	.L126:
  53:main.c        ****       if(*counter2>-1){*counter2=*counter2+1; if(*counter2==2){*x2=*y2+57;} if(*counter2==1){*y2=*x
 1319              		.loc 1 53 131 is_stmt 1 discriminator 15
  53:main.c        ****       if(*counter2>-1){*counter2=*counter2+1; if(*counter2==2){*x2=*y2+57;} if(*counter2==1){*y2=*x
 1320              		.loc 1 53 138 is_stmt 0 discriminator 15
 1321 0662 93879703 		addi	a5,a5,57
  53:main.c        ****       if(*counter2>-1){*counter2=*counter2+1; if(*counter2==2){*x2=*y2+57;} if(*counter2==1){*y2=*x
 1322              		.loc 1 53 134 discriminator 15
 1323 0666 23A0FE00 		sw	a5,0(t4)
 1324 066a ADB9     		j	.L121
 1325              	.LVL54:
 1326              	.L77:
  35:main.c        ****       if(*counter2>-1){*counter2=*counter2+1; if(*counter2==2){*y2=*y2+33;} if(*counter2==1){*x2=*x
 1327              		.loc 1 35 34 discriminator 4
 1328 066c 0945     		li	a0,2
 1329 066e 631CA700 		bne	a4,a0,.L81
  35:main.c        ****       if(*counter2>-1){*counter2=*counter2+1; if(*counter2==2){*y2=*y2+33;} if(*counter2==1){*x2=*x
 1330              		.loc 1 35 53 discriminator 5
 1331 0672 03270E00 		lw	a4,0(t3)
  35:main.c        ****       if(*counter2>-1){*counter2=*counter2+1; if(*counter2==2){*y2=*y2+33;} if(*counter2==1){*x2=*x
 1332              		.loc 1 35 50 discriminator 5
 1333 0676 7D55     		li	a0,-1
 1334 0678 E312A7B6 		bne	a4,a0,.L79
 1335              	.L80:
  35:main.c        ****       if(*counter2>-1){*counter2=*counter2+1; if(*counter2==2){*y2=*y2+33;} if(*counter2==1){*x2=*x
 1336              		.loc 1 35 62 is_stmt 1 discriminator 7
  35:main.c        ****       if(*counter2>-1){*counter2=*counter2+1; if(*counter2==2){*y2=*y2+33;} if(*counter2==1){*x2=*x
 1337              		.loc 1 35 69 is_stmt 0 discriminator 7
 1338 067c 13071704 		addi	a4,a4,65
  35:main.c        ****       if(*counter2>-1){*counter2=*counter2+1; if(*counter2==2){*y2=*y2+33;} if(*counter2==1){*x2=*x
 1339              		.loc 1 35 65 discriminator 7
 1340 0680 2320EE00 		sw	a4,0(t3)
 1341 0684 9843     		lw	a4,0(a5)
 1342              	.L81:
  35:main.c        ****       if(*counter2>-1){*counter2=*counter2+1; if(*counter2==2){*y2=*y2+33;} if(*counter2==1){*x2=*x
 1343              		.loc 1 35 75 is_stmt 1 discriminator 9
  35:main.c        ****       if(*counter2>-1){*counter2=*counter2+1; if(*counter2==2){*y2=*y2+33;} if(*counter2==1){*x2=*x
 1344              		.loc 1 35 77 is_stmt 0 discriminator 9
 1345 0686 8547     		li	a5,1
 1346              	.LVL55:
 1347 0688 6318F71C 		bne	a4,a5,.L83
  35:main.c        ****       if(*counter2>-1){*counter2=*counter2+1; if(*counter2==2){*y2=*y2+33;} if(*counter2==1){*x2=*x
 1348              		.loc 1 35 91 discriminator 10
 1349 068c 9841     		lw	a4,0(a1)
 1350 068e FD57     		li	a5,-1
 1351 0690 E316F7B4 		bne	a4,a5,.L79
 1352 0694 83A70E00 		lw	a5,0(t4)
 1353              	.L84:
  35:main.c        ****       if(*counter2>-1){*counter2=*counter2+1; if(*counter2==2){*y2=*y2+33;} if(*counter2==1){*x2=*x
 1354              		.loc 1 35 131 is_stmt 1 discriminator 15
  35:main.c        ****       if(*counter2>-1){*counter2=*counter2+1; if(*counter2==2){*y2=*y2+33;} if(*counter2==1){*x2=*x
 1355              		.loc 1 35 138 is_stmt 0 discriminator 15
 1356 0698 93871702 		addi	a5,a5,33
  35:main.c        ****       if(*counter2>-1){*counter2=*counter2+1; if(*counter2==2){*y2=*y2+33;} if(*counter2==1){*x2=*x
 1357              		.loc 1 35 134 discriminator 15
 1358 069c 23A0FE00 		sw	a5,0(t4)
GAS LISTING C:\Users\GTSAIN~1\AppData\Local\Temp\ccIslvt7.s 			page 37


 1359 06a0 35BE     		j	.L79
 1360              	.LVL56:
 1361              	.L22:
  11:main.c        ****       if(*counter2>-1){*counter2=*counter2+1; if(*counter2==2){*y2=*y2+1;} if(*counter2==1){*x2=*x2
 1362              		.loc 1 11 34 discriminator 4
 1363 06a2 8946     		li	a3,2
 1364              	.LVL57:
 1365 06a4 631BD700 		bne	a4,a3,.L26
  11:main.c        ****       if(*counter2>-1){*counter2=*counter2+1; if(*counter2==2){*y2=*y2+1;} if(*counter2==1){*x2=*x2
 1366              		.loc 1 11 53 discriminator 5
 1367 06a8 03270E00 		lw	a4,0(t3)
  11:main.c        ****       if(*counter2>-1){*counter2=*counter2+1; if(*counter2==2){*y2=*y2+1;} if(*counter2==1){*x2=*x2
 1368              		.loc 1 11 50 discriminator 5
 1369 06ac FD56     		li	a3,-1
 1370 06ae E315D79E 		bne	a4,a3,.L24
 1371              	.L25:
  11:main.c        ****       if(*counter2>-1){*counter2=*counter2+1; if(*counter2==2){*y2=*y2+1;} if(*counter2==1){*x2=*x2
 1372              		.loc 1 11 62 is_stmt 1 discriminator 7
  11:main.c        ****       if(*counter2>-1){*counter2=*counter2+1; if(*counter2==2){*y2=*y2+1;} if(*counter2==1){*x2=*x2
 1373              		.loc 1 11 69 is_stmt 0 discriminator 7
 1374 06b2 0507     		addi	a4,a4,1
  11:main.c        ****       if(*counter2>-1){*counter2=*counter2+1; if(*counter2==2){*y2=*y2+1;} if(*counter2==1){*x2=*x2
 1375              		.loc 1 11 65 discriminator 7
 1376 06b4 2320EE00 		sw	a4,0(t3)
 1377 06b8 9843     		lw	a4,0(a5)
 1378              	.L26:
  11:main.c        ****       if(*counter2>-1){*counter2=*counter2+1; if(*counter2==2){*y2=*y2+1;} if(*counter2==1){*x2=*x2
 1379              		.loc 1 11 74 is_stmt 1 discriminator 9
  11:main.c        ****       if(*counter2>-1){*counter2=*counter2+1; if(*counter2==2){*y2=*y2+1;} if(*counter2==1){*x2=*x2
 1380              		.loc 1 11 76 is_stmt 0 discriminator 9
 1381 06ba 8547     		li	a5,1
 1382              	.LVL58:
 1383 06bc 631AF714 		bne	a4,a5,.L28
  11:main.c        ****       if(*counter2>-1){*counter2=*counter2+1; if(*counter2==2){*y2=*y2+1;} if(*counter2==1){*x2=*x2
 1384              		.loc 1 11 90 discriminator 10
 1385 06c0 9841     		lw	a4,0(a1)
 1386 06c2 FD57     		li	a5,-1
 1387 06c4 E31AF79C 		bne	a4,a5,.L24
 1388 06c8 83A70E00 		lw	a5,0(t4)
 1389              	.L29:
  11:main.c        ****       if(*counter2>-1){*counter2=*counter2+1; if(*counter2==2){*y2=*y2+1;} if(*counter2==1){*x2=*x2
 1390              		.loc 1 11 129 is_stmt 1 discriminator 15
  11:main.c        ****       if(*counter2>-1){*counter2=*counter2+1; if(*counter2==2){*y2=*y2+1;} if(*counter2==1){*x2=*x2
 1391              		.loc 1 11 136 is_stmt 0 discriminator 15
 1392 06cc 8507     		addi	a5,a5,1
  11:main.c        ****       if(*counter2>-1){*counter2=*counter2+1; if(*counter2==2){*y2=*y2+1;} if(*counter2==1){*x2=*x2
 1393              		.loc 1 11 132 discriminator 15
 1394 06ce 23A0FE00 		sw	a5,0(t4)
 1395 06d2 D9B2     		j	.L24
 1396              	.LVL59:
 1397              	.L91:
  41:main.c        ****       if(*counter2>-1){*counter2=*counter2+1; if(*counter2==2){*y2=*y2+41;} if(*counter2==1){*x2=*x
 1398              		.loc 1 41 34 discriminator 4
 1399 06d4 0945     		li	a0,2
 1400 06d6 631CA700 		bne	a4,a0,.L95
  41:main.c        ****       if(*counter2>-1){*counter2=*counter2+1; if(*counter2==2){*y2=*y2+41;} if(*counter2==1){*x2=*x
 1401              		.loc 1 41 53 discriminator 5
GAS LISTING C:\Users\GTSAIN~1\AppData\Local\Temp\ccIslvt7.s 			page 38


 1402 06da 03270E00 		lw	a4,0(t3)
  41:main.c        ****       if(*counter2>-1){*counter2=*counter2+1; if(*counter2==2){*y2=*y2+41;} if(*counter2==1){*x2=*x
 1403              		.loc 1 41 50 discriminator 5
 1404 06de 7D55     		li	a0,-1
 1405 06e0 E31AA7B4 		bne	a4,a0,.L93
 1406              	.L94:
  41:main.c        ****       if(*counter2>-1){*counter2=*counter2+1; if(*counter2==2){*y2=*y2+41;} if(*counter2==1){*x2=*x
 1407              		.loc 1 41 62 is_stmt 1 discriminator 7
  41:main.c        ****       if(*counter2>-1){*counter2=*counter2+1; if(*counter2==2){*y2=*y2+41;} if(*counter2==1){*x2=*x
 1408              		.loc 1 41 69 is_stmt 0 discriminator 7
 1409 06e4 13071705 		addi	a4,a4,81
  41:main.c        ****       if(*counter2>-1){*counter2=*counter2+1; if(*counter2==2){*y2=*y2+41;} if(*counter2==1){*x2=*x
 1410              		.loc 1 41 65 discriminator 7
 1411 06e8 2320EE00 		sw	a4,0(t3)
 1412 06ec 9843     		lw	a4,0(a5)
 1413              	.L95:
  41:main.c        ****       if(*counter2>-1){*counter2=*counter2+1; if(*counter2==2){*y2=*y2+41;} if(*counter2==1){*x2=*x
 1414              		.loc 1 41 75 is_stmt 1 discriminator 9
  41:main.c        ****       if(*counter2>-1){*counter2=*counter2+1; if(*counter2==2){*y2=*y2+41;} if(*counter2==1){*x2=*x
 1415              		.loc 1 41 77 is_stmt 0 discriminator 9
 1416 06ee 8547     		li	a5,1
 1417              	.LVL60:
 1418 06f0 631BF714 		bne	a4,a5,.L97
  41:main.c        ****       if(*counter2>-1){*counter2=*counter2+1; if(*counter2==2){*y2=*y2+41;} if(*counter2==1){*x2=*x
 1419              		.loc 1 41 91 discriminator 10
 1420 06f4 9841     		lw	a4,0(a1)
 1421 06f6 FD57     		li	a5,-1
 1422 06f8 E31EF7B2 		bne	a4,a5,.L93
 1423 06fc 83A70E00 		lw	a5,0(t4)
 1424              	.L98:
  41:main.c        ****       if(*counter2>-1){*counter2=*counter2+1; if(*counter2==2){*y2=*y2+41;} if(*counter2==1){*x2=*x
 1425              		.loc 1 41 130 is_stmt 1 discriminator 15
  41:main.c        ****       if(*counter2>-1){*counter2=*counter2+1; if(*counter2==2){*y2=*y2+41;} if(*counter2==1){*x2=*x
 1426              		.loc 1 41 137 is_stmt 0 discriminator 15
 1427 0700 93879702 		addi	a5,a5,41
  41:main.c        ****       if(*counter2>-1){*counter2=*counter2+1; if(*counter2==2){*y2=*y2+41;} if(*counter2==1){*x2=*x
 1428              		.loc 1 41 133 discriminator 15
 1429 0704 23A0FE00 		sw	a5,0(t4)
 1430 0708 35B6     		j	.L93
 1431              	.LVL61:
 1432              	.L133:
  59:main.c        ****       if(*counter2>-1){*counter2=*counter2+1; if(*counter2==2){*y2=*y2+65;} if(*counter2==1){*x2=*x
 1433              		.loc 1 59 34 discriminator 4
 1434 070a 0945     		li	a0,2
 1435 070c 631CA700 		bne	a4,a0,.L137
  59:main.c        ****       if(*counter2>-1){*counter2=*counter2+1; if(*counter2==2){*y2=*y2+65;} if(*counter2==1){*x2=*x
 1436              		.loc 1 59 53 discriminator 5
 1437 0710 03270E00 		lw	a4,0(t3)
  59:main.c        ****       if(*counter2>-1){*counter2=*counter2+1; if(*counter2==2){*y2=*y2+65;} if(*counter2==1){*x2=*x
 1438              		.loc 1 59 50 discriminator 5
 1439 0714 7D55     		li	a0,-1
 1440 0716 E313A7C2 		bne	a4,a0,.L135
 1441              	.L136:
  59:main.c        ****       if(*counter2>-1){*counter2=*counter2+1; if(*counter2==2){*y2=*y2+65;} if(*counter2==1){*x2=*x
 1442              		.loc 1 59 62 is_stmt 1 discriminator 7
  59:main.c        ****       if(*counter2>-1){*counter2=*counter2+1; if(*counter2==2){*y2=*y2+65;} if(*counter2==1){*x2=*x
 1443              		.loc 1 59 69 is_stmt 0 discriminator 7
GAS LISTING C:\Users\GTSAIN~1\AppData\Local\Temp\ccIslvt7.s 			page 39


 1444 071a 13071708 		addi	a4,a4,129
  59:main.c        ****       if(*counter2>-1){*counter2=*counter2+1; if(*counter2==2){*y2=*y2+65;} if(*counter2==1){*x2=*x
 1445              		.loc 1 59 65 discriminator 7
 1446 071e 2320EE00 		sw	a4,0(t3)
 1447 0722 9843     		lw	a4,0(a5)
 1448              	.L137:
  59:main.c        ****       if(*counter2>-1){*counter2=*counter2+1; if(*counter2==2){*y2=*y2+65;} if(*counter2==1){*x2=*x
 1449              		.loc 1 59 76 is_stmt 1 discriminator 9
  59:main.c        ****       if(*counter2>-1){*counter2=*counter2+1; if(*counter2==2){*y2=*y2+65;} if(*counter2==1){*x2=*x
 1450              		.loc 1 59 78 is_stmt 0 discriminator 9
 1451 0724 8547     		li	a5,1
 1452              	.LVL62:
 1453 0726 631EF70E 		bne	a4,a5,.L139
  59:main.c        ****       if(*counter2>-1){*counter2=*counter2+1; if(*counter2==2){*y2=*y2+65;} if(*counter2==1){*x2=*x
 1454              		.loc 1 59 92 discriminator 10
 1455 072a 9841     		lw	a4,0(a1)
 1456 072c FD57     		li	a5,-1
 1457 072e E317F7C0 		bne	a4,a5,.L135
 1458 0732 83A70E00 		lw	a5,0(t4)
 1459              	.L140:
  59:main.c        ****       if(*counter2>-1){*counter2=*counter2+1; if(*counter2==2){*y2=*y2+65;} if(*counter2==1){*x2=*x
 1460              		.loc 1 59 131 is_stmt 1 discriminator 15
  59:main.c        ****       if(*counter2>-1){*counter2=*counter2+1; if(*counter2==2){*y2=*y2+65;} if(*counter2==1){*x2=*x
 1461              		.loc 1 59 138 is_stmt 0 discriminator 15
 1462 0736 93871704 		addi	a5,a5,65
  59:main.c        ****       if(*counter2>-1){*counter2=*counter2+1; if(*counter2==2){*y2=*y2+65;} if(*counter2==1){*x2=*x
 1463              		.loc 1 59 134 discriminator 15
 1464 073a 23A0FE00 		sw	a5,0(t4)
 1465 073e FDBE     		j	.L135
 1466              	.LVL63:
 1467              	.L49:
  23:main.c        ****       if(*counter2>-1){*counter2=*counter2+1; if(*counter2==2){*y2=*y2+17;} if(*counter2==1){*x2=*x
 1468              		.loc 1 23 34 discriminator 4
 1469 0740 0945     		li	a0,2
 1470 0742 631CA700 		bne	a4,a0,.L53
  23:main.c        ****       if(*counter2>-1){*counter2=*counter2+1; if(*counter2==2){*y2=*y2+17;} if(*counter2==1){*x2=*x
 1471              		.loc 1 23 53 discriminator 5
 1472 0746 03270E00 		lw	a4,0(t3)
  23:main.c        ****       if(*counter2>-1){*counter2=*counter2+1; if(*counter2==2){*y2=*y2+17;} if(*counter2==1){*x2=*x
 1473              		.loc 1 23 50 discriminator 5
 1474 074a 7D55     		li	a0,-1
 1475 074c E312A79E 		bne	a4,a0,.L51
 1476              	.L52:
  23:main.c        ****       if(*counter2>-1){*counter2=*counter2+1; if(*counter2==2){*y2=*y2+17;} if(*counter2==1){*x2=*x
 1477              		.loc 1 23 62 is_stmt 1 discriminator 7
  23:main.c        ****       if(*counter2>-1){*counter2=*counter2+1; if(*counter2==2){*y2=*y2+17;} if(*counter2==1){*x2=*x
 1478              		.loc 1 23 69 is_stmt 0 discriminator 7
 1479 0750 13071702 		addi	a4,a4,33
  23:main.c        ****       if(*counter2>-1){*counter2=*counter2+1; if(*counter2==2){*y2=*y2+17;} if(*counter2==1){*x2=*x
 1480              		.loc 1 23 65 discriminator 7
 1481 0754 2320EE00 		sw	a4,0(t3)
 1482 0758 9843     		lw	a4,0(a5)
 1483              	.L53:
  23:main.c        ****       if(*counter2>-1){*counter2=*counter2+1; if(*counter2==2){*y2=*y2+17;} if(*counter2==1){*x2=*x
 1484              		.loc 1 23 75 is_stmt 1 discriminator 9
  23:main.c        ****       if(*counter2>-1){*counter2=*counter2+1; if(*counter2==2){*y2=*y2+17;} if(*counter2==1){*x2=*x
 1485              		.loc 1 23 77 is_stmt 0 discriminator 9
GAS LISTING C:\Users\GTSAIN~1\AppData\Local\Temp\ccIslvt7.s 			page 40


 1486 075a 8547     		li	a5,1
 1487              	.LVL64:
 1488 075c 6317F710 		bne	a4,a5,.L55
  23:main.c        ****       if(*counter2>-1){*counter2=*counter2+1; if(*counter2==2){*y2=*y2+17;} if(*counter2==1){*x2=*x
 1489              		.loc 1 23 91 discriminator 10
 1490 0760 9841     		lw	a4,0(a1)
 1491 0762 FD57     		li	a5,-1
 1492 0764 E316F79C 		bne	a4,a5,.L51
 1493 0768 83A70E00 		lw	a5,0(t4)
 1494              	.L56:
  23:main.c        ****       if(*counter2>-1){*counter2=*counter2+1; if(*counter2==2){*y2=*y2+17;} if(*counter2==1){*x2=*x
 1495              		.loc 1 23 130 is_stmt 1 discriminator 15
  23:main.c        ****       if(*counter2>-1){*counter2=*counter2+1; if(*counter2==2){*y2=*y2+17;} if(*counter2==1){*x2=*x
 1496              		.loc 1 23 137 is_stmt 0 discriminator 15
 1497 076c C507     		addi	a5,a5,17
  23:main.c        ****       if(*counter2>-1){*counter2=*counter2+1; if(*counter2==2){*y2=*y2+17;} if(*counter2==1){*x2=*x
 1498              		.loc 1 23 133 discriminator 15
 1499 076e 23A0FE00 		sw	a5,0(t4)
 1500 0772 7DBA     		j	.L51
 1501              	.LVL65:
 1502              	.L35:
  17:main.c        ****       if(*counter2>-1){*counter2=*counter2+1; if(*counter2==2){*y2=*y2+9;} if(*counter2==1){*x2=*x2
 1503              		.loc 1 17 34 discriminator 4
 1504 0774 0945     		li	a0,2
 1505 0776 631BA700 		bne	a4,a0,.L39
  17:main.c        ****       if(*counter2>-1){*counter2=*counter2+1; if(*counter2==2){*y2=*y2+9;} if(*counter2==1){*x2=*x2
 1506              		.loc 1 17 53 discriminator 5
 1507 077a 03270E00 		lw	a4,0(t3)
  17:main.c        ****       if(*counter2>-1){*counter2=*counter2+1; if(*counter2==2){*y2=*y2+9;} if(*counter2==1){*x2=*x2
 1508              		.loc 1 17 50 discriminator 5
 1509 077e 7D55     		li	a0,-1
 1510 0780 E31FA794 		bne	a4,a0,.L37
 1511              	.L38:
  17:main.c        ****       if(*counter2>-1){*counter2=*counter2+1; if(*counter2==2){*y2=*y2+9;} if(*counter2==1){*x2=*x2
 1512              		.loc 1 17 62 is_stmt 1 discriminator 7
  17:main.c        ****       if(*counter2>-1){*counter2=*counter2+1; if(*counter2==2){*y2=*y2+9;} if(*counter2==1){*x2=*x2
 1513              		.loc 1 17 69 is_stmt 0 discriminator 7
 1514 0784 4507     		addi	a4,a4,17
  17:main.c        ****       if(*counter2>-1){*counter2=*counter2+1; if(*counter2==2){*y2=*y2+9;} if(*counter2==1){*x2=*x2
 1515              		.loc 1 17 65 discriminator 7
 1516 0786 2320EE00 		sw	a4,0(t3)
 1517 078a 9843     		lw	a4,0(a5)
 1518              	.L39:
  17:main.c        ****       if(*counter2>-1){*counter2=*counter2+1; if(*counter2==2){*y2=*y2+9;} if(*counter2==1){*x2=*x2
 1519              		.loc 1 17 75 is_stmt 1 discriminator 9
  17:main.c        ****       if(*counter2>-1){*counter2=*counter2+1; if(*counter2==2){*y2=*y2+9;} if(*counter2==1){*x2=*x2
 1520              		.loc 1 17 77 is_stmt 0 discriminator 9
 1521 078c 8547     		li	a5,1
 1522              	.LVL66:
 1523 078e 6317F70E 		bne	a4,a5,.L41
  17:main.c        ****       if(*counter2>-1){*counter2=*counter2+1; if(*counter2==2){*y2=*y2+9;} if(*counter2==1){*x2=*x2
 1524              		.loc 1 17 91 discriminator 10
 1525 0792 9841     		lw	a4,0(a1)
 1526 0794 FD57     		li	a5,-1
 1527 0796 E314F794 		bne	a4,a5,.L37
 1528 079a 83A70E00 		lw	a5,0(t4)
 1529              	.L42:
GAS LISTING C:\Users\GTSAIN~1\AppData\Local\Temp\ccIslvt7.s 			page 41


  17:main.c        ****       if(*counter2>-1){*counter2=*counter2+1; if(*counter2==2){*y2=*y2+9;} if(*counter2==1){*x2=*x2
 1530              		.loc 1 17 130 is_stmt 1 discriminator 15
  17:main.c        ****       if(*counter2>-1){*counter2=*counter2+1; if(*counter2==2){*y2=*y2+9;} if(*counter2==1){*x2=*x2
 1531              		.loc 1 17 137 is_stmt 0 discriminator 15
 1532 079e A507     		addi	a5,a5,9
  17:main.c        ****       if(*counter2>-1){*counter2=*counter2+1; if(*counter2==2){*y2=*y2+9;} if(*counter2==1){*x2=*x2
 1533              		.loc 1 17 133 discriminator 15
 1534 07a0 23A0FE00 		sw	a5,0(t4)
 1535 07a4 2DBA     		j	.L37
 1536              	.LVL67:
 1537              	.L63:
  29:main.c        ****       if(*counter2>-1){*counter2=*counter2+1; if(*counter2==2){*y2=*y2+25;} if(*counter2==1){*x2=*x
 1538              		.loc 1 29 34 discriminator 4
 1539 07a6 0945     		li	a0,2
 1540 07a8 631CA700 		bne	a4,a0,.L67
  29:main.c        ****       if(*counter2>-1){*counter2=*counter2+1; if(*counter2==2){*y2=*y2+25;} if(*counter2==1){*x2=*x
 1541              		.loc 1 29 53 discriminator 5
 1542 07ac 03270E00 		lw	a4,0(t3)
  29:main.c        ****       if(*counter2>-1){*counter2=*counter2+1; if(*counter2==2){*y2=*y2+25;} if(*counter2==1){*x2=*x
 1543              		.loc 1 29 50 discriminator 5
 1544 07b0 7D55     		li	a0,-1
 1545 07b2 E31AA79C 		bne	a4,a0,.L65
 1546              	.L66:
  29:main.c        ****       if(*counter2>-1){*counter2=*counter2+1; if(*counter2==2){*y2=*y2+25;} if(*counter2==1){*x2=*x
 1547              		.loc 1 29 62 is_stmt 1 discriminator 7
  29:main.c        ****       if(*counter2>-1){*counter2=*counter2+1; if(*counter2==2){*y2=*y2+25;} if(*counter2==1){*x2=*x
 1548              		.loc 1 29 69 is_stmt 0 discriminator 7
 1549 07b6 13071703 		addi	a4,a4,49
  29:main.c        ****       if(*counter2>-1){*counter2=*counter2+1; if(*counter2==2){*y2=*y2+25;} if(*counter2==1){*x2=*x
 1550              		.loc 1 29 65 discriminator 7
 1551 07ba 2320EE00 		sw	a4,0(t3)
 1552 07be 9843     		lw	a4,0(a5)
 1553              	.L67:
  29:main.c        ****       if(*counter2>-1){*counter2=*counter2+1; if(*counter2==2){*y2=*y2+25;} if(*counter2==1){*x2=*x
 1554              		.loc 1 29 75 is_stmt 1 discriminator 9
  29:main.c        ****       if(*counter2>-1){*counter2=*counter2+1; if(*counter2==2){*y2=*y2+25;} if(*counter2==1){*x2=*x
 1555              		.loc 1 29 77 is_stmt 0 discriminator 9
 1556 07c0 8547     		li	a5,1
 1557              	.LVL68:
 1558 07c2 6315F702 		bne	a4,a5,.L69
  29:main.c        ****       if(*counter2>-1){*counter2=*counter2+1; if(*counter2==2){*y2=*y2+25;} if(*counter2==1){*x2=*x
 1559              		.loc 1 29 91 discriminator 10
 1560 07c6 9841     		lw	a4,0(a1)
 1561 07c8 FD57     		li	a5,-1
 1562 07ca E31EF79A 		bne	a4,a5,.L65
 1563 07ce 83A70E00 		lw	a5,0(t4)
 1564              	.L70:
  29:main.c        ****       if(*counter2>-1){*counter2=*counter2+1; if(*counter2==2){*y2=*y2+25;} if(*counter2==1){*x2=*x
 1565              		.loc 1 29 130 is_stmt 1 discriminator 15
  29:main.c        ****       if(*counter2>-1){*counter2=*counter2+1; if(*counter2==2){*y2=*y2+25;} if(*counter2==1){*x2=*x
 1566              		.loc 1 29 137 is_stmt 0 discriminator 15
 1567 07d2 E507     		addi	a5,a5,25
  29:main.c        ****       if(*counter2>-1){*counter2=*counter2+1; if(*counter2==2){*y2=*y2+25;} if(*counter2==1){*x2=*x
 1568              		.loc 1 29 133 discriminator 15
 1569 07d4 23A0FE00 		sw	a5,0(t4)
 1570 07d8 7DB2     		j	.L65
 1571              	.L153:
GAS LISTING C:\Users\GTSAIN~1\AppData\Local\Temp\ccIslvt7.s 			page 42


  65:main.c        ****       if(*counter2>-1){*counter2=*counter2+1; if(*counter2==2){*y2=*y2+81;} if(*counter2==1){*x2=*x
 1572              		.loc 1 65 102 discriminator 13
 1573 07da 8D47     		li	a5,3
 1574 07dc E31BF7BA 		bne	a4,a5,.L149
  65:main.c        ****       if(*counter2>-1){*counter2=*counter2+1; if(*counter2==2){*y2=*y2+81;} if(*counter2==1){*x2=*x
 1575              		.loc 1 65 121 discriminator 14
 1576 07e0 83A70E00 		lw	a5,0(t4)
  65:main.c        ****       if(*counter2>-1){*counter2=*counter2+1; if(*counter2==2){*y2=*y2+81;} if(*counter2==1){*x2=*x
 1577              		.loc 1 65 118 discriminator 14
 1578 07e4 7D57     		li	a4,-1
 1579 07e6 E396E7BA 		bne	a5,a4,.L149
 1580 07ea 31B5     		j	.L154
 1581              	.L69:
  29:main.c        ****       if(*counter2>-1){*counter2=*counter2+1; if(*counter2==2){*y2=*y2+25;} if(*counter2==1){*x2=*x
 1582              		.loc 1 29 102 discriminator 13
 1583 07ec 8D47     		li	a5,3
 1584 07ee E31CF798 		bne	a4,a5,.L65
  29:main.c        ****       if(*counter2>-1){*counter2=*counter2+1; if(*counter2==2){*y2=*y2+25;} if(*counter2==1){*x2=*x
 1585              		.loc 1 29 121 discriminator 14
 1586 07f2 83A70E00 		lw	a5,0(t4)
  29:main.c        ****       if(*counter2>-1){*counter2=*counter2+1; if(*counter2==2){*y2=*y2+25;} if(*counter2==1){*x2=*x
 1587              		.loc 1 29 118 discriminator 14
 1588 07f6 7D57     		li	a4,-1
 1589 07f8 E397E798 		bne	a5,a4,.L65
 1590 07fc D9BF     		j	.L70
 1591              	.L125:
  53:main.c        ****       if(*counter2>-1){*counter2=*counter2+1; if(*counter2==2){*x2=*y2+57;} if(*counter2==1){*y2=*x
 1592              		.loc 1 53 103 discriminator 13
 1593 07fe 8D47     		li	a5,3
 1594 0800 E312F7AE 		bne	a4,a5,.L121
  53:main.c        ****       if(*counter2>-1){*counter2=*counter2+1; if(*counter2==2){*x2=*y2+57;} if(*counter2==1){*y2=*x
 1595              		.loc 1 53 122 discriminator 14
 1596 0804 83A70E00 		lw	a5,0(t4)
  53:main.c        ****       if(*counter2>-1){*counter2=*counter2+1; if(*counter2==2){*x2=*y2+57;} if(*counter2==1){*y2=*x
 1597              		.loc 1 53 119 discriminator 14
 1598 0808 7D57     		li	a4,-1
 1599 080a E39DE7AC 		bne	a5,a4,.L121
 1600 080e 91BD     		j	.L126
 1601              	.LVL69:
 1602              	.L28:
  11:main.c        ****       if(*counter2>-1){*counter2=*counter2+1; if(*counter2==2){*y2=*y2+1;} if(*counter2==1){*x2=*x2
 1603              		.loc 1 11 101 discriminator 13
 1604 0810 8D47     		li	a5,3
 1605 0812 E313F788 		bne	a4,a5,.L24
  11:main.c        ****       if(*counter2>-1){*counter2=*counter2+1; if(*counter2==2){*y2=*y2+1;} if(*counter2==1){*x2=*x2
 1606              		.loc 1 11 120 discriminator 14
 1607 0816 83A70E00 		lw	a5,0(t4)
  11:main.c        ****       if(*counter2>-1){*counter2=*counter2+1; if(*counter2==2){*y2=*y2+1;} if(*counter2==1){*x2=*x2
 1608              		.loc 1 11 117 discriminator 14
 1609 081a 7D57     		li	a4,-1
 1610 081c E39EE786 		bne	a5,a4,.L24
 1611 0820 75B5     		j	.L29
 1612              	.LVL70:
 1613              	.L139:
  59:main.c        ****       if(*counter2>-1){*counter2=*counter2+1; if(*counter2==2){*y2=*y2+65;} if(*counter2==1){*x2=*x
 1614              		.loc 1 59 103 discriminator 13
 1615 0822 8D47     		li	a5,3
GAS LISTING C:\Users\GTSAIN~1\AppData\Local\Temp\ccIslvt7.s 			page 43


 1616 0824 E31CF7B0 		bne	a4,a5,.L135
  59:main.c        ****       if(*counter2>-1){*counter2=*counter2+1; if(*counter2==2){*y2=*y2+65;} if(*counter2==1){*x2=*x
 1617              		.loc 1 59 122 discriminator 14
 1618 0828 83A70E00 		lw	a5,0(t4)
  59:main.c        ****       if(*counter2>-1){*counter2=*counter2+1; if(*counter2==2){*y2=*y2+65;} if(*counter2==1){*x2=*x
 1619              		.loc 1 59 119 discriminator 14
 1620 082c 7D57     		li	a4,-1
 1621 082e E397E7B0 		bne	a5,a4,.L135
 1622 0832 11B7     		j	.L140
 1623              	.L111:
  47:main.c        ****       if(*counter2>-1){*counter2=*counter2+1; if(*counter2==2){*y2=*y2+49;} if(*counter2==1){*x2=*x
 1624              		.loc 1 47 102 discriminator 13
 1625 0834 8D47     		li	a5,3
 1626 0836 E31BF7A4 		bne	a4,a5,.L107
  47:main.c        ****       if(*counter2>-1){*counter2=*counter2+1; if(*counter2==2){*y2=*y2+49;} if(*counter2==1){*x2=*x
 1627              		.loc 1 47 121 discriminator 14
 1628 083a 83A70E00 		lw	a5,0(t4)
  47:main.c        ****       if(*counter2>-1){*counter2=*counter2+1; if(*counter2==2){*y2=*y2+49;} if(*counter2==1){*x2=*x
 1629              		.loc 1 47 118 discriminator 14
 1630 083e 7D57     		li	a4,-1
 1631 0840 E396E7A4 		bne	a5,a4,.L107
 1632 0844 E5B3     		j	.L112
 1633              	.L97:
  41:main.c        ****       if(*counter2>-1){*counter2=*counter2+1; if(*counter2==2){*y2=*y2+41;} if(*counter2==1){*x2=*x
 1634              		.loc 1 41 102 discriminator 13
 1635 0846 8D47     		li	a5,3
 1636 0848 E316F79E 		bne	a4,a5,.L93
  41:main.c        ****       if(*counter2>-1){*counter2=*counter2+1; if(*counter2==2){*y2=*y2+41;} if(*counter2==1){*x2=*x
 1637              		.loc 1 41 121 discriminator 14
 1638 084c 83A70E00 		lw	a5,0(t4)
  41:main.c        ****       if(*counter2>-1){*counter2=*counter2+1; if(*counter2==2){*y2=*y2+41;} if(*counter2==1){*x2=*x
 1639              		.loc 1 41 118 discriminator 14
 1640 0850 7D57     		li	a4,-1
 1641 0852 E391E79E 		bne	a5,a4,.L93
 1642 0856 6DB5     		j	.L98
 1643              	.L83:
  35:main.c        ****       if(*counter2>-1){*counter2=*counter2+1; if(*counter2==2){*y2=*y2+33;} if(*counter2==1){*x2=*x
 1644              		.loc 1 35 103 discriminator 13
 1645 0858 8D47     		li	a5,3
 1646 085a E311F798 		bne	a4,a5,.L79
  35:main.c        ****       if(*counter2>-1){*counter2=*counter2+1; if(*counter2==2){*y2=*y2+33;} if(*counter2==1){*x2=*x
 1647              		.loc 1 35 122 discriminator 14
 1648 085e 83A70E00 		lw	a5,0(t4)
  35:main.c        ****       if(*counter2>-1){*counter2=*counter2+1; if(*counter2==2){*y2=*y2+33;} if(*counter2==1){*x2=*x
 1649              		.loc 1 35 119 discriminator 14
 1650 0862 7D57     		li	a4,-1
 1651 0864 E39CE796 		bne	a5,a4,.L79
 1652 0868 05BD     		j	.L84
 1653              	.L55:
  23:main.c        ****       if(*counter2>-1){*counter2=*counter2+1; if(*counter2==2){*y2=*y2+17;} if(*counter2==1){*x2=*x
 1654              		.loc 1 23 102 discriminator 13
 1655 086a 8D47     		li	a5,3
 1656 086c E312F78C 		bne	a4,a5,.L51
  23:main.c        ****       if(*counter2>-1){*counter2=*counter2+1; if(*counter2==2){*y2=*y2+17;} if(*counter2==1){*x2=*x
 1657              		.loc 1 23 121 discriminator 14
 1658 0870 83A70E00 		lw	a5,0(t4)
  23:main.c        ****       if(*counter2>-1){*counter2=*counter2+1; if(*counter2==2){*y2=*y2+17;} if(*counter2==1){*x2=*x
GAS LISTING C:\Users\GTSAIN~1\AppData\Local\Temp\ccIslvt7.s 			page 44


 1659              		.loc 1 23 118 discriminator 14
 1660 0874 7D57     		li	a4,-1
 1661 0876 E39DE78A 		bne	a5,a4,.L51
 1662 087a CDBD     		j	.L56
 1663              	.L41:
  17:main.c        ****       if(*counter2>-1){*counter2=*counter2+1; if(*counter2==2){*y2=*y2+9;} if(*counter2==1){*x2=*x2
 1664              		.loc 1 17 102 discriminator 13
 1665 087c 8D47     		li	a5,3
 1666 087e E310F786 		bne	a4,a5,.L37
  17:main.c        ****       if(*counter2>-1){*counter2=*counter2+1; if(*counter2==2){*y2=*y2+9;} if(*counter2==1){*x2=*x2
 1667              		.loc 1 17 121 discriminator 14
 1668 0882 83A70E00 		lw	a5,0(t4)
  17:main.c        ****       if(*counter2>-1){*counter2=*counter2+1; if(*counter2==2){*y2=*y2+9;} if(*counter2==1){*x2=*x2
 1669              		.loc 1 17 118 discriminator 14
 1670 0886 7D57     		li	a4,-1
 1671 0888 E39BE784 		bne	a5,a4,.L37
 1672 088c 09BF     		j	.L42
 1673              	.L185:
  74:main.c        ****              if(*colourchoice==1){*colourDisplay=65504; return;}//YELLOW
 1674              		.loc 1 74 35 is_stmt 1 discriminator 1
  74:main.c        ****              if(*colourchoice==1){*colourDisplay=65504; return;}//YELLOW
 1675              		.loc 1 74 49 is_stmt 0 discriminator 1
 1676 088e C167     		li	a5,65536
 1677 0890 FD17     		addi	a5,a5,-1
 1678 0892 2320FF00 		sw	a5,0(t5)
  74:main.c        ****              if(*colourchoice==1){*colourDisplay=65504; return;}//YELLOW
 1679              		.loc 1 74 57 is_stmt 1 discriminator 1
 1680 0896 8280     		ret
 1681              	.LVL71:
 1682              	.L180:
 1683 0898 03270E00 		lw	a4,0(t3)
 1684 089c 6DB3     		j	.L122
 1685              	.L181:
 1686 089e 03270E00 		lw	a4,0(t3)
 1687 08a2 A5BD     		j	.L136
 1688              	.LVL72:
 1689              	.L173:
 1690 08a4 03270E00 		lw	a4,0(t3)
 1691 08a8 29B5     		j	.L25
 1692              	.LVL73:
 1693              	.L178:
 1694 08aa 03270E00 		lw	a4,0(t3)
 1695 08ae 1DBD     		j	.L94
 1696              	.L175:
 1697 08b0 03270E00 		lw	a4,0(t3)
 1698 08b4 71BD     		j	.L52
 1699              	.L182:
 1700 08b6 03270E00 		lw	a4,0(t3)
 1701 08ba 05B3     		j	.L150
 1702              	.L179:
 1703 08bc 03270E00 		lw	a4,0(t3)
 1704 08c0 81BB     		j	.L108
 1705              	.L177:
 1706 08c2 03270E00 		lw	a4,0(t3)
 1707 08c6 5DBB     		j	.L80
 1708              	.L174:
 1709 08c8 03270E00 		lw	a4,0(t3)
GAS LISTING C:\Users\GTSAIN~1\AppData\Local\Temp\ccIslvt7.s 			page 45


 1710 08cc 65BD     		j	.L38
 1711              	.L176:
 1712 08ce 03270E00 		lw	a4,0(t3)
 1713 08d2 D5B5     		j	.L66
 1714              	.LVL74:
 1715              	.L186:
  75:main.c        ****              if(*colourchoice==2){*colourDisplay=63519; return;}//BRED
 1716              		.loc 1 75 35 discriminator 1
  75:main.c        ****              if(*colourchoice==2){*colourDisplay=63519; return;}//BRED
 1717              		.loc 1 75 49 is_stmt 0 discriminator 1
 1718 08d4 C167     		li	a5,65536
 1719 08d6 8117     		addi	a5,a5,-32
 1720 08d8 2320FF00 		sw	a5,0(t5)
  75:main.c        ****              if(*colourchoice==2){*colourDisplay=63519; return;}//BRED
 1721              		.loc 1 75 57 is_stmt 1 discriminator 1
 1722 08dc 8280     		ret
 1723              	.L187:
  76:main.c        ****              if(*colourchoice==3){*colourDisplay=48192; return;}//BROWN
 1724              		.loc 1 76 35 discriminator 1
  76:main.c        ****              if(*colourchoice==3){*colourDisplay=48192; return;}//BROWN
 1725              		.loc 1 76 49 is_stmt 0 discriminator 1
 1726 08de C167     		li	a5,65536
 1727 08e0 9387F781 		addi	a5,a5,-2017
 1728 08e4 2320FF00 		sw	a5,0(t5)
  76:main.c        ****              if(*colourchoice==3){*colourDisplay=48192; return;}//BROWN
 1729              		.loc 1 76 57 is_stmt 1 discriminator 1
 1730 08e8 8280     		ret
 1731              	.L188:
  77:main.c        ****              if(*colourchoice==4){*colourDisplay=0; return;}//BLACK
 1732              		.loc 1 77 35 discriminator 1
  77:main.c        ****              if(*colourchoice==4){*colourDisplay=0; return;}//BLACK
 1733              		.loc 1 77 49 is_stmt 0 discriminator 1
 1734 08ea B167     		li	a5,49152
 1735 08ec 938707C4 		addi	a5,a5,-960
 1736 08f0 2320FF00 		sw	a5,0(t5)
  77:main.c        ****              if(*colourchoice==4){*colourDisplay=0; return;}//BLACK
 1737              		.loc 1 77 57 is_stmt 1 discriminator 1
 1738 08f4 8280     		ret
 1739              	.L189:
  78:main.c        ****              if(*colourchoice==5){*colourDisplay=31; return;}//BLUE
 1740              		.loc 1 78 35 discriminator 1
  78:main.c        ****              if(*colourchoice==5){*colourDisplay=31; return;}//BLUE
 1741              		.loc 1 78 49 is_stmt 0 discriminator 1
 1742 08f6 23200F00 		sw	zero,0(t5)
  78:main.c        ****              if(*colourchoice==5){*colourDisplay=31; return;}//BLUE
 1743              		.loc 1 78 53 is_stmt 1 discriminator 1
 1744 08fa 8280     		ret
 1745              	.L190:
  79:main.c        ****              if(*colourchoice==6){*colourDisplay=2016; return;}//GREEN
 1746              		.loc 1 79 35 discriminator 1
  79:main.c        ****              if(*colourchoice==6){*colourDisplay=2016; return;}//GREEN
 1747              		.loc 1 79 49 is_stmt 0 discriminator 1
 1748 08fc FD47     		li	a5,31
 1749 08fe 2320FF00 		sw	a5,0(t5)
  79:main.c        ****              if(*colourchoice==6){*colourDisplay=2016; return;}//GREEN
 1750              		.loc 1 79 54 is_stmt 1 discriminator 1
 1751 0902 8280     		ret
GAS LISTING C:\Users\GTSAIN~1\AppData\Local\Temp\ccIslvt7.s 			page 46


 1752              	.L191:
  80:main.c        ****              if(*colourchoice==7){*colourDisplay=32767; return;}//CYAN
 1753              		.loc 1 80 35 discriminator 1
  80:main.c        ****              if(*colourchoice==7){*colourDisplay=32767; return;}//CYAN
 1754              		.loc 1 80 49 is_stmt 0 discriminator 1
 1755 0904 9307007E 		li	a5,2016
 1756 0908 2320FF00 		sw	a5,0(t5)
  80:main.c        ****              if(*colourchoice==7){*colourDisplay=32767; return;}//CYAN
 1757              		.loc 1 80 56 is_stmt 1 discriminator 1
 1758 090c 8280     		ret
 1759              	.L192:
  81:main.c        ****              if(*colourchoice==8){*colourDisplay=33840; return;}//GRAY
 1760              		.loc 1 81 35 discriminator 1
  81:main.c        ****              if(*colourchoice==8){*colourDisplay=33840; return;}//GRAY
 1761              		.loc 1 81 49 is_stmt 0 discriminator 1
 1762 090e A167     		li	a5,32768
 1763 0910 FD17     		addi	a5,a5,-1
 1764 0912 2320FF00 		sw	a5,0(t5)
  81:main.c        ****              if(*colourchoice==8){*colourDisplay=33840; return;}//GRAY
 1765              		.loc 1 81 57 is_stmt 1 discriminator 1
 1766 0916 8280     		ret
 1767              	.L193:
  82:main.c        ****              if(*colourchoice==9){*colourDisplay=463; return;}//DARK BLUE
 1768              		.loc 1 82 35 discriminator 1
  82:main.c        ****              if(*colourchoice==9){*colourDisplay=463; return;}//DARK BLUE
 1769              		.loc 1 82 49 is_stmt 0 discriminator 1
 1770 0918 A167     		li	a5,32768
 1771 091a 93870743 		addi	a5,a5,1072
 1772 091e 2320FF00 		sw	a5,0(t5)
  82:main.c        ****              if(*colourchoice==9){*colourDisplay=463; return;}//DARK BLUE
 1773              		.loc 1 82 57 is_stmt 1 discriminator 1
 1774 0922 8280     		ret
 1775              		.cfi_endproc
 1776              	.LFE2:
 1778              		.section	.text.startup.main,"ax",@progbits
 1779              		.align	1
 1780              		.globl	main
 1782              	main:
 1783              	.LFB3:
  92:main.c        **** 
  93:main.c        **** int main(void){
 1784              		.loc 1 93 15
 1785              		.cfi_startproc
  94:main.c        ****     int ms=0, s=0, key, pKey=-1, c=0, idle=0;
 1786              		.loc 1 94 5
 1787              	.LVL75:
  95:main.c        ****     int lookUpTbl[16]={1,4,7,14,2,5,8,0,3,6,9,15,10,11,12,13};
 1788              		.loc 1 95 5
 1789              		.loc 1 95 9 is_stmt 0
 1790 0000 B7070000 		lui	a5,%hi(.LANCHOR0)
  93:main.c        ****     int ms=0, s=0, key, pKey=-1, c=0, idle=0;
 1791              		.loc 1 93 15
 1792 0004 7571     		addi	sp,sp,-144
 1793              	.LCFI0:
 1794              		.cfi_def_cfa_offset 144
 1795              		.loc 1 95 9
 1796 0006 93870700 		addi	a5,a5,%lo(.LANCHOR0)
GAS LISTING C:\Users\GTSAIN~1\AppData\Local\Temp\ccIslvt7.s 			page 47


  93:main.c        ****     int ms=0, s=0, key, pKey=-1, c=0, idle=0;
 1797              		.loc 1 93 15
 1798 000a 06C7     		sw	ra,140(sp)
 1799 000c 22C5     		sw	s0,136(sp)
 1800 000e 26C3     		sw	s1,132(sp)
 1801 0010 4AC1     		sw	s2,128(sp)
 1802              		.cfi_offset 1, -4
 1803              		.cfi_offset 8, -8
 1804              		.cfi_offset 9, -12
 1805              		.cfi_offset 18, -16
 1806              		.loc 1 95 9
 1807 0012 9800     		addi	a4,sp,64
 1808 0014 93860704 		addi	a3,a5,64
 1809              	.L195:
 1810 0018 03A80700 		lw	a6,0(a5)
 1811 001c C843     		lw	a0,4(a5)
 1812 001e 8C47     		lw	a1,8(a5)
 1813 0020 D047     		lw	a2,12(a5)
 1814 0022 23200701 		sw	a6,0(a4)
 1815 0026 48C3     		sw	a0,4(a4)
 1816 0028 0CC7     		sw	a1,8(a4)
 1817 002a 50C7     		sw	a2,12(a4)
 1818 002c C107     		addi	a5,a5,16
 1819 002e 4107     		addi	a4,a4,16
 1820 0030 E394D7FE 		bne	a5,a3,.L195
  96:main.c        ****     int dac=0, speed=-100;
 1821              		.loc 1 96 5 is_stmt 1
 1822              	.LVL76:
  97:main.c        ****     int adcr, tmpr;
 1823              		.loc 1 97 5
  98:main.c        ****     int *x1=-1,*y1=-1,*x2=-1,*y2=-1; 
 1824              		.loc 1 98 5
 1825              		.loc 1 98 10 is_stmt 0
 1826 0034 FD57     		li	a5,-1
 1827 0036 3ECE     		sw	a5,28(sp)
 1828              		.loc 1 98 17
 1829 0038 3ED0     		sw	a5,32(sp)
 1830              		.loc 1 98 24
 1831 003a 3ED2     		sw	a5,36(sp)
 1832              		.loc 1 98 31
 1833 003c 3ED4     		sw	a5,40(sp)
  99:main.c        ****     int *colourCounter=-1;
 1834              		.loc 1 99 5 is_stmt 1
 1835              		.loc 1 99 10 is_stmt 0
 1836 003e 3ED6     		sw	a5,44(sp)
 100:main.c        ****     int *colourDisplay=0;
 1837              		.loc 1 100 5 is_stmt 1
 101:main.c        ****     int *colourchoice=0;
 102:main.c        ****     int *counter1=-1, *counter2=-1;
 1838              		.loc 1 102 10 is_stmt 0
 1839 0040 3EDC     		sw	a5,56(sp)
 1840              		.loc 1 102 24
 1841 0042 3EDE     		sw	a5,60(sp)
 100:main.c        ****     int *colourDisplay=0;
 1842              		.loc 1 100 10
 1843 0044 02D8     		sw	zero,48(sp)
 101:main.c        ****     int *colourchoice=0;
GAS LISTING C:\Users\GTSAIN~1\AppData\Local\Temp\ccIslvt7.s 			page 48


 1844              		.loc 1 101 5 is_stmt 1
 101:main.c        ****     int *colourchoice=0;
 1845              		.loc 1 101 10 is_stmt 0
 1846 0046 02DA     		sw	zero,52(sp)
 1847              		.loc 1 102 5 is_stmt 1
 103:main.c        ****     //char digits[10][10]={"Zero ","One  ","Two  ","Three","Four ","Five ","Six  ","Seven","Eight",
 104:main.c        **** 
 105:main.c        ****     t5omsi();                               // Initialize timer5 1kHz
 1848              		.loc 1 105 5
 1849 0048 97000000 		call	t5omsi
 1849      E7800000 
 1850              	.LVL77:
 106:main.c        ****     colinit();                              // Initialize column toolbox
 1851              		.loc 1 106 5
 1852 0050 97000000 		call	colinit
 1852      E7800000 
 1853              	.LVL78:
 107:main.c        ****     l88init();                              // Initialize 8*8 led toolbox
 1854              		.loc 1 107 5
 1855 0058 97000000 		call	l88init
 1855      E7800000 
 1856              	.LVL79:
 108:main.c        ****     keyinit();                              // Initialize keyboard toolbox
 1857              		.loc 1 108 5
 1858 0060 97000000 		call	keyinit
 1858      E7800000 
 1859              	.LVL80:
 109:main.c        ****     Lcd_SetType(LCD_NORMAL);                // or use LCD_INVERTED!
 1860              		.loc 1 109 5
 1861 0068 0145     		li	a0,0
 1862 006a 97000000 		call	Lcd_SetType
 1862      E7800000 
 1863              	.LVL81:
 110:main.c        ****     Lcd_Init();
 1864              		.loc 1 110 5
 1865 0072 97000000 		call	Lcd_Init
 1865      E7800000 
 1866              	.LVL82:
 111:main.c        ****     LCD_Clear(RED);
 1867              		.loc 1 111 5
 1868 007a 4165     		li	a0,65536
 1869 007c 13050580 		addi	a0,a0,-2048
 1870 0080 97000000 		call	LCD_Clear
 1870      E7800000 
 1871              	.LVL83:
 1872 0088 13094103 		addi	s2,sp,52
 1873 008c 0418     		addi	s1,sp,48
 1874              	.LVL84:
 1875              	.L196:
 112:main.c        ****     //LCD_ShowStr(10, 10, "POLL VERSION", WHITE, TRANSPARENT);
 113:main.c        ****     //LCD_ShowChar(10,50,127,TRANSPARENT,BLACK); //127
 114:main.c        **** 
 115:main.c        ****     while (1) {
 1876              		.loc 1 115 5
 116:main.c        ****         idle++;                             // Manage Async events
 1877              		.loc 1 116 9
 117:main.c        ****         LCD_WR_Queue();                   // Manage LCD com queue!
GAS LISTING C:\Users\GTSAIN~1\AppData\Local\Temp\ccIslvt7.s 			page 49


 1878              		.loc 1 117 9
 1879 008e 97000000 		call	LCD_WR_Queue
 1879      E7800000 
 1880              	.LVL85:
 118:main.c        **** 
 119:main.c        ****         if (t5expq()) {                     // Manage periodic tasks
 1881              		.loc 1 119 9
 1882              		.loc 1 119 13 is_stmt 0
 1883 0096 97000000 		call	t5expq
 1883      E7800000 
 1884              	.LVL86:
 120:main.c        ****             l88row(colset());               // ...8*8LED and Keyboard
 1885              		.loc 1 120 13 is_stmt 1
 119:main.c        ****             l88row(colset());               // ...8*8LED and Keyboard
 1886              		.loc 1 119 12 is_stmt 0
 1887 009e 65D9     		beq	a0,zero,.L196
 1888              		.loc 1 120 13
 1889 00a0 97000000 		call	colset
 1889      E7800000 
 1890              	.LVL87:
 1891 00a8 97000000 		call	l88row
 1891      E7800000 
 1892              	.LVL88:
 121:main.c        ****             ms++;                           // ...One second heart beat
 1893              		.loc 1 121 13 is_stmt 1
 122:main.c        ****             if (ms==1000){
 1894              		.loc 1 122 13
 123:main.c        ****               ms=0;
 124:main.c        ****               //l88mem(0,s++);
 125:main.c        ****               //LCD_ShowStr(10, 30, digits[s%10], WHITE, OPAQUE);
 126:main.c        ****             }
 127:main.c        ****             if ((key=keyscan())>=0) {       // ...Any key pressed?
 1895              		.loc 1 127 13
 1896              		.loc 1 127 22 is_stmt 0
 1897 00b0 97000000 		call	keyscan
 1897      E7800000 
 1898              	.LVL89:
 128:main.c        ****               //if (pKey==key) c++; else {c=0; pKey=key;}
 129:main.c        ****               l88mem(1,lookUpTbl[key]+(c<<4));
 1899              		.loc 1 129 15 is_stmt 1
 1900              		.loc 1 129 33 is_stmt 0
 1901 00b8 93172500 		slli	a5,a0,2
 127:main.c        ****               //if (pKey==key) c++; else {c=0; pKey=key;}
 1902              		.loc 1 127 22
 1903 00bc 2A87     		mv	a4,a0
 1904              	.LVL90:
 1905              		.loc 1 129 33
 1906 00be 1401     		addi	a3,sp,128
 1907 00c0 B697     		add	a5,a3,a5
 1908              		.loc 1 129 15
 1909 00c2 0545     		li	a0,1
 1910              	.LVL91:
 127:main.c        ****               //if (pKey==key) c++; else {c=0; pKey=key;}
 1911              		.loc 1 127 16
 1912 00c4 E34507FC 		blt	a4,zero,.L196
 1913              		.loc 1 129 33
 1914 00c8 03A407FC 		lw	s0,-64(a5)
GAS LISTING C:\Users\GTSAIN~1\AppData\Local\Temp\ccIslvt7.s 			page 50


 1915              		.loc 1 129 15
 1916 00cc A285     		mv	a1,s0
 1917 00ce 97000000 		call	l88mem
 1917      E7800000 
 1918              	.LVL92:
 130:main.c        ****               drawing(lookUpTbl[key],&x1,&y1,&x2,&y2,&counter1,&counter2,&colourCounter,&colourDisp
 1919              		.loc 1 130 15 is_stmt 1
 1920 00d6 9308C102 		addi	a7,sp,44
 1921 00da 4AC2     		sw	s2,4(sp)
 1922 00dc 26C0     		sw	s1,0(sp)
 1923 00de 1308C103 		addi	a6,sp,60
 1924 00e2 3C18     		addi	a5,sp,56
 1925 00e4 3810     		addi	a4,sp,40
 1926 00e6 5410     		addi	a3,sp,36
 1927 00e8 1010     		addi	a2,sp,32
 1928 00ea 6C08     		addi	a1,sp,28
 1929 00ec 2285     		mv	a0,s0
 1930 00ee 97000000 		call	drawing
 1930      E7800000 
 1931              	.LVL93:
 1932 00f6 61BF     		j	.L196
 1933              		.cfi_endproc
 1934              	.LFE3:
 1936              		.section	.rodata
 1937              		.align	2
 1938              		.set	.LANCHOR0,. + 0
 1939              	.LC0:
 1940 0000 01000000 		.word	1
 1941 0004 04000000 		.word	4
 1942 0008 07000000 		.word	7
 1943 000c 0E000000 		.word	14
 1944 0010 02000000 		.word	2
 1945 0014 05000000 		.word	5
 1946 0018 08000000 		.word	8
 1947 001c 00000000 		.word	0
 1948 0020 03000000 		.word	3
 1949 0024 06000000 		.word	6
 1950 0028 09000000 		.word	9
 1951 002c 0F000000 		.word	15
 1952 0030 0A000000 		.word	10
 1953 0034 0B000000 		.word	11
 1954 0038 0C000000 		.word	12
 1955 003c 0D000000 		.word	13
 1956              		.text
 1957              	.Letext0:
 1958              		.file 2 "c:\\users\\gtsa infinity\\desktop\\toolchain-gd32v-win\\compiler\\riscv64-unknown-elf\\in
 1959              		.file 3 "c:\\users\\gtsa infinity\\desktop\\toolchain-gd32v-win\\compiler\\riscv64-unknown-elf\\in
 1960              		.file 4 "c:\\users\\gtsa infinity\\desktop\\toolchain-gd32v-win\\compiler\\lib\\gcc\\riscv64-unkno
 1961              		.file 5 "c:\\users\\gtsa infinity\\desktop\\toolchain-gd32v-win\\compiler\\riscv64-unknown-elf\\in
 1962              		.file 6 "c:\\users\\gtsa infinity\\desktop\\toolchain-gd32v-win\\compiler\\riscv64-unknown-elf\\in
 1963              		.file 7 "c:\\users\\gtsa infinity\\desktop\\toolchain-gd32v-win\\compiler\\riscv64-unknown-elf\\in
 1964              		.file 8 "../../firmware/GD32VF103_standard_peripheral/system_gd32vf103.h"
 1965              		.file 9 "c:\\users\\gtsa infinity\\desktop\\toolchain-gd32v-win\\compiler\\riscv64-unknown-elf\\in
 1966              		.file 10 "lcd.h"
 1967              		.file 11 "drivers.h"
GAS LISTING C:\Users\GTSAIN~1\AppData\Local\Temp\ccIslvt7.s 			page 51


DEFINED SYMBOLS
                            *ABS*:0000000000000000 main.c
C:\Users\GTSAIN~1\AppData\Local\Temp\ccIslvt7.s:13     .text.drawing:0000000000000000 drawing
C:\Users\GTSAIN~1\AppData\Local\Temp\ccIslvt7.s:17     .text.drawing:0000000000000000 .L0 
C:\Users\GTSAIN~1\AppData\Local\Temp\ccIslvt7.s:19     .text.drawing:0000000000000000 .L0 
C:\Users\GTSAIN~1\AppData\Local\Temp\ccIslvt7.s:20     .text.drawing:0000000000000000 .L0 
C:\Users\GTSAIN~1\AppData\Local\Temp\ccIslvt7.s:22     .text.drawing:0000000000000002 .L0 
C:\Users\GTSAIN~1\AppData\Local\Temp\ccIslvt7.s:32     .text.drawing:000000000000000e .L0 
C:\Users\GTSAIN~1\AppData\Local\Temp\ccIslvt7.s:64     .text.drawing:0000000000000022 .L0 
C:\Users\GTSAIN~1\AppData\Local\Temp\ccIslvt7.s:65     .text.drawing:0000000000000022 .L0 
C:\Users\GTSAIN~1\AppData\Local\Temp\ccIslvt7.s:68     .text.drawing:0000000000000024 .L0 
C:\Users\GTSAIN~1\AppData\Local\Temp\ccIslvt7.s:71     .text.drawing:000000000000002a .L0 
C:\Users\GTSAIN~1\AppData\Local\Temp\ccIslvt7.s:72     .text.drawing:000000000000002a .L0 
C:\Users\GTSAIN~1\AppData\Local\Temp\ccIslvt7.s:76     .text.drawing:0000000000000030 .L0 
C:\Users\GTSAIN~1\AppData\Local\Temp\ccIslvt7.s:77     .text.drawing:0000000000000030 .L0 
C:\Users\GTSAIN~1\AppData\Local\Temp\ccIslvt7.s:80     .text.drawing:0000000000000034 .L0 
C:\Users\GTSAIN~1\AppData\Local\Temp\ccIslvt7.s:84     .text.drawing:0000000000000036 .L0 
C:\Users\GTSAIN~1\AppData\Local\Temp\ccIslvt7.s:96     .text.drawing:000000000000004e .L0 
C:\Users\GTSAIN~1\AppData\Local\Temp\ccIslvt7.s:107    .text.drawing:0000000000000066 .L0 
C:\Users\GTSAIN~1\AppData\Local\Temp\ccIslvt7.s:119    .text.drawing:000000000000007e .L0 
C:\Users\GTSAIN~1\AppData\Local\Temp\ccIslvt7.s:120    .text.drawing:000000000000007e .L0 
C:\Users\GTSAIN~1\AppData\Local\Temp\ccIslvt7.s:122    .text.drawing:0000000000000080 .L0 
C:\Users\GTSAIN~1\AppData\Local\Temp\ccIslvt7.s:124    .text.drawing:0000000000000082 .L0 
C:\Users\GTSAIN~1\AppData\Local\Temp\ccIslvt7.s:126    .text.drawing:0000000000000084 .L0 
C:\Users\GTSAIN~1\AppData\Local\Temp\ccIslvt7.s:127    .text.drawing:0000000000000084 .L0 
C:\Users\GTSAIN~1\AppData\Local\Temp\ccIslvt7.s:129    .text.drawing:0000000000000088 .L0 
C:\Users\GTSAIN~1\AppData\Local\Temp\ccIslvt7.s:132    .text.drawing:000000000000008a .L0 
C:\Users\GTSAIN~1\AppData\Local\Temp\ccIslvt7.s:133    .text.drawing:000000000000008a .L0 
C:\Users\GTSAIN~1\AppData\Local\Temp\ccIslvt7.s:135    .text.drawing:000000000000008c .L0 
C:\Users\GTSAIN~1\AppData\Local\Temp\ccIslvt7.s:137    .text.drawing:0000000000000090 .L0 
C:\Users\GTSAIN~1\AppData\Local\Temp\ccIslvt7.s:144    .text.drawing:0000000000000098 .L0 
C:\Users\GTSAIN~1\AppData\Local\Temp\ccIslvt7.s:145    .text.drawing:0000000000000098 .L0 
C:\Users\GTSAIN~1\AppData\Local\Temp\ccIslvt7.s:147    .text.drawing:000000000000009c .L0 
C:\Users\GTSAIN~1\AppData\Local\Temp\ccIslvt7.s:149    .text.drawing:00000000000000a0 .L0 
C:\Users\GTSAIN~1\AppData\Local\Temp\ccIslvt7.s:150    .text.drawing:00000000000000a0 .L0 
C:\Users\GTSAIN~1\AppData\Local\Temp\ccIslvt7.s:152    .text.drawing:00000000000000a2 .L0 
C:\Users\GTSAIN~1\AppData\Local\Temp\ccIslvt7.s:154    .text.drawing:00000000000000a6 .L0 
C:\Users\GTSAIN~1\AppData\Local\Temp\ccIslvt7.s:155    .text.drawing:00000000000000a6 .L0 
C:\Users\GTSAIN~1\AppData\Local\Temp\ccIslvt7.s:158    .text.drawing:00000000000000ac .L0 
C:\Users\GTSAIN~1\AppData\Local\Temp\ccIslvt7.s:159    .text.drawing:00000000000000ac .L0 
C:\Users\GTSAIN~1\AppData\Local\Temp\ccIslvt7.s:162    .text.drawing:00000000000000b0 .L0 
C:\Users\GTSAIN~1\AppData\Local\Temp\ccIslvt7.s:166    .text.drawing:00000000000000b6 .L0 
C:\Users\GTSAIN~1\AppData\Local\Temp\ccIslvt7.s:167    .text.drawing:00000000000000b6 .L0 
C:\Users\GTSAIN~1\AppData\Local\Temp\ccIslvt7.s:170    .text.drawing:00000000000000bc .L0 
C:\Users\GTSAIN~1\AppData\Local\Temp\ccIslvt7.s:171    .text.drawing:00000000000000bc .L0 
C:\Users\GTSAIN~1\AppData\Local\Temp\ccIslvt7.s:174    .text.drawing:00000000000000c0 .L0 
C:\Users\GTSAIN~1\AppData\Local\Temp\ccIslvt7.s:179    .text.drawing:00000000000000c4 .L0 
C:\Users\GTSAIN~1\AppData\Local\Temp\ccIslvt7.s:180    .text.drawing:00000000000000c4 .L0 
C:\Users\GTSAIN~1\AppData\Local\Temp\ccIslvt7.s:182    .text.drawing:00000000000000c6 .L0 
C:\Users\GTSAIN~1\AppData\Local\Temp\ccIslvt7.s:184    .text.drawing:00000000000000c8 .L0 
C:\Users\GTSAIN~1\AppData\Local\Temp\ccIslvt7.s:186    .text.drawing:00000000000000ca .L0 
C:\Users\GTSAIN~1\AppData\Local\Temp\ccIslvt7.s:187    .text.drawing:00000000000000ca .L0 
C:\Users\GTSAIN~1\AppData\Local\Temp\ccIslvt7.s:189    .text.drawing:00000000000000ce .L0 
C:\Users\GTSAIN~1\AppData\Local\Temp\ccIslvt7.s:192    .text.drawing:00000000000000d0 .L0 
C:\Users\GTSAIN~1\AppData\Local\Temp\ccIslvt7.s:193    .text.drawing:00000000000000d0 .L0 
C:\Users\GTSAIN~1\AppData\Local\Temp\ccIslvt7.s:195    .text.drawing:00000000000000d2 .L0 
C:\Users\GTSAIN~1\AppData\Local\Temp\ccIslvt7.s:197    .text.drawing:00000000000000d6 .L0 
GAS LISTING C:\Users\GTSAIN~1\AppData\Local\Temp\ccIslvt7.s 			page 52


C:\Users\GTSAIN~1\AppData\Local\Temp\ccIslvt7.s:203    .text.drawing:00000000000000de .L0 
C:\Users\GTSAIN~1\AppData\Local\Temp\ccIslvt7.s:204    .text.drawing:00000000000000de .L0 
C:\Users\GTSAIN~1\AppData\Local\Temp\ccIslvt7.s:206    .text.drawing:00000000000000e2 .L0 
C:\Users\GTSAIN~1\AppData\Local\Temp\ccIslvt7.s:208    .text.drawing:00000000000000e6 .L0 
C:\Users\GTSAIN~1\AppData\Local\Temp\ccIslvt7.s:209    .text.drawing:00000000000000e6 .L0 
C:\Users\GTSAIN~1\AppData\Local\Temp\ccIslvt7.s:211    .text.drawing:00000000000000e8 .L0 
C:\Users\GTSAIN~1\AppData\Local\Temp\ccIslvt7.s:213    .text.drawing:00000000000000ec .L0 
C:\Users\GTSAIN~1\AppData\Local\Temp\ccIslvt7.s:214    .text.drawing:00000000000000ec .L0 
C:\Users\GTSAIN~1\AppData\Local\Temp\ccIslvt7.s:217    .text.drawing:00000000000000f2 .L0 
C:\Users\GTSAIN~1\AppData\Local\Temp\ccIslvt7.s:218    .text.drawing:00000000000000f2 .L0 
C:\Users\GTSAIN~1\AppData\Local\Temp\ccIslvt7.s:221    .text.drawing:00000000000000f6 .L0 
C:\Users\GTSAIN~1\AppData\Local\Temp\ccIslvt7.s:225    .text.drawing:00000000000000fc .L0 
C:\Users\GTSAIN~1\AppData\Local\Temp\ccIslvt7.s:226    .text.drawing:00000000000000fc .L0 
C:\Users\GTSAIN~1\AppData\Local\Temp\ccIslvt7.s:229    .text.drawing:0000000000000102 .L0 
C:\Users\GTSAIN~1\AppData\Local\Temp\ccIslvt7.s:230    .text.drawing:0000000000000102 .L0 
C:\Users\GTSAIN~1\AppData\Local\Temp\ccIslvt7.s:233    .text.drawing:0000000000000106 .L0 
C:\Users\GTSAIN~1\AppData\Local\Temp\ccIslvt7.s:236    .text.drawing:0000000000000108 .L0 
C:\Users\GTSAIN~1\AppData\Local\Temp\ccIslvt7.s:237    .text.drawing:0000000000000108 .L0 
C:\Users\GTSAIN~1\AppData\Local\Temp\ccIslvt7.s:240    .text.drawing:000000000000010e .L0 
C:\Users\GTSAIN~1\AppData\Local\Temp\ccIslvt7.s:241    .text.drawing:000000000000010e .L0 
C:\Users\GTSAIN~1\AppData\Local\Temp\ccIslvt7.s:244    .text.drawing:0000000000000112 .L0 
C:\Users\GTSAIN~1\AppData\Local\Temp\ccIslvt7.s:249    .text.drawing:0000000000000116 .L0 
C:\Users\GTSAIN~1\AppData\Local\Temp\ccIslvt7.s:250    .text.drawing:0000000000000116 .L0 
C:\Users\GTSAIN~1\AppData\Local\Temp\ccIslvt7.s:252    .text.drawing:0000000000000118 .L0 
C:\Users\GTSAIN~1\AppData\Local\Temp\ccIslvt7.s:254    .text.drawing:000000000000011a .L0 
C:\Users\GTSAIN~1\AppData\Local\Temp\ccIslvt7.s:256    .text.drawing:000000000000011c .L0 
C:\Users\GTSAIN~1\AppData\Local\Temp\ccIslvt7.s:257    .text.drawing:000000000000011c .L0 
C:\Users\GTSAIN~1\AppData\Local\Temp\ccIslvt7.s:259    .text.drawing:0000000000000120 .L0 
C:\Users\GTSAIN~1\AppData\Local\Temp\ccIslvt7.s:262    .text.drawing:0000000000000122 .L0 
C:\Users\GTSAIN~1\AppData\Local\Temp\ccIslvt7.s:263    .text.drawing:0000000000000122 .L0 
C:\Users\GTSAIN~1\AppData\Local\Temp\ccIslvt7.s:265    .text.drawing:0000000000000124 .L0 
C:\Users\GTSAIN~1\AppData\Local\Temp\ccIslvt7.s:267    .text.drawing:0000000000000128 .L0 
C:\Users\GTSAIN~1\AppData\Local\Temp\ccIslvt7.s:273    .text.drawing:0000000000000130 .L0 
C:\Users\GTSAIN~1\AppData\Local\Temp\ccIslvt7.s:274    .text.drawing:0000000000000130 .L0 
C:\Users\GTSAIN~1\AppData\Local\Temp\ccIslvt7.s:276    .text.drawing:0000000000000134 .L0 
C:\Users\GTSAIN~1\AppData\Local\Temp\ccIslvt7.s:278    .text.drawing:0000000000000138 .L0 
C:\Users\GTSAIN~1\AppData\Local\Temp\ccIslvt7.s:279    .text.drawing:0000000000000138 .L0 
C:\Users\GTSAIN~1\AppData\Local\Temp\ccIslvt7.s:281    .text.drawing:000000000000013a .L0 
C:\Users\GTSAIN~1\AppData\Local\Temp\ccIslvt7.s:283    .text.drawing:000000000000013e .L0 
C:\Users\GTSAIN~1\AppData\Local\Temp\ccIslvt7.s:284    .text.drawing:000000000000013e .L0 
C:\Users\GTSAIN~1\AppData\Local\Temp\ccIslvt7.s:287    .text.drawing:0000000000000144 .L0 
C:\Users\GTSAIN~1\AppData\Local\Temp\ccIslvt7.s:288    .text.drawing:0000000000000144 .L0 
C:\Users\GTSAIN~1\AppData\Local\Temp\ccIslvt7.s:291    .text.drawing:0000000000000148 .L0 
C:\Users\GTSAIN~1\AppData\Local\Temp\ccIslvt7.s:295    .text.drawing:000000000000014e .L0 
C:\Users\GTSAIN~1\AppData\Local\Temp\ccIslvt7.s:296    .text.drawing:000000000000014e .L0 
C:\Users\GTSAIN~1\AppData\Local\Temp\ccIslvt7.s:299    .text.drawing:0000000000000154 .L0 
C:\Users\GTSAIN~1\AppData\Local\Temp\ccIslvt7.s:300    .text.drawing:0000000000000154 .L0 
C:\Users\GTSAIN~1\AppData\Local\Temp\ccIslvt7.s:303    .text.drawing:000000000000015a .L0 
C:\Users\GTSAIN~1\AppData\Local\Temp\ccIslvt7.s:306    .text.drawing:000000000000015c .L0 
C:\Users\GTSAIN~1\AppData\Local\Temp\ccIslvt7.s:307    .text.drawing:000000000000015c .L0 
C:\Users\GTSAIN~1\AppData\Local\Temp\ccIslvt7.s:310    .text.drawing:0000000000000164 .L0 
C:\Users\GTSAIN~1\AppData\Local\Temp\ccIslvt7.s:311    .text.drawing:0000000000000164 .L0 
C:\Users\GTSAIN~1\AppData\Local\Temp\ccIslvt7.s:314    .text.drawing:0000000000000168 .L0 
C:\Users\GTSAIN~1\AppData\Local\Temp\ccIslvt7.s:319    .text.drawing:000000000000016c .L0 
C:\Users\GTSAIN~1\AppData\Local\Temp\ccIslvt7.s:320    .text.drawing:000000000000016c .L0 
C:\Users\GTSAIN~1\AppData\Local\Temp\ccIslvt7.s:322    .text.drawing:000000000000016e .L0 
C:\Users\GTSAIN~1\AppData\Local\Temp\ccIslvt7.s:324    .text.drawing:0000000000000170 .L0 
GAS LISTING C:\Users\GTSAIN~1\AppData\Local\Temp\ccIslvt7.s 			page 53


C:\Users\GTSAIN~1\AppData\Local\Temp\ccIslvt7.s:326    .text.drawing:0000000000000172 .L0 
C:\Users\GTSAIN~1\AppData\Local\Temp\ccIslvt7.s:327    .text.drawing:0000000000000172 .L0 
C:\Users\GTSAIN~1\AppData\Local\Temp\ccIslvt7.s:329    .text.drawing:0000000000000176 .L0 
C:\Users\GTSAIN~1\AppData\Local\Temp\ccIslvt7.s:332    .text.drawing:0000000000000178 .L0 
C:\Users\GTSAIN~1\AppData\Local\Temp\ccIslvt7.s:333    .text.drawing:0000000000000178 .L0 
C:\Users\GTSAIN~1\AppData\Local\Temp\ccIslvt7.s:335    .text.drawing:000000000000017a .L0 
C:\Users\GTSAIN~1\AppData\Local\Temp\ccIslvt7.s:337    .text.drawing:000000000000017e .L0 
C:\Users\GTSAIN~1\AppData\Local\Temp\ccIslvt7.s:343    .text.drawing:0000000000000186 .L0 
C:\Users\GTSAIN~1\AppData\Local\Temp\ccIslvt7.s:344    .text.drawing:0000000000000186 .L0 
C:\Users\GTSAIN~1\AppData\Local\Temp\ccIslvt7.s:346    .text.drawing:000000000000018a .L0 
C:\Users\GTSAIN~1\AppData\Local\Temp\ccIslvt7.s:348    .text.drawing:000000000000018e .L0 
C:\Users\GTSAIN~1\AppData\Local\Temp\ccIslvt7.s:349    .text.drawing:000000000000018e .L0 
C:\Users\GTSAIN~1\AppData\Local\Temp\ccIslvt7.s:351    .text.drawing:0000000000000190 .L0 
C:\Users\GTSAIN~1\AppData\Local\Temp\ccIslvt7.s:353    .text.drawing:0000000000000194 .L0 
C:\Users\GTSAIN~1\AppData\Local\Temp\ccIslvt7.s:354    .text.drawing:0000000000000194 .L0 
C:\Users\GTSAIN~1\AppData\Local\Temp\ccIslvt7.s:357    .text.drawing:000000000000019a .L0 
C:\Users\GTSAIN~1\AppData\Local\Temp\ccIslvt7.s:358    .text.drawing:000000000000019a .L0 
C:\Users\GTSAIN~1\AppData\Local\Temp\ccIslvt7.s:361    .text.drawing:000000000000019e .L0 
C:\Users\GTSAIN~1\AppData\Local\Temp\ccIslvt7.s:365    .text.drawing:00000000000001a4 .L0 
C:\Users\GTSAIN~1\AppData\Local\Temp\ccIslvt7.s:366    .text.drawing:00000000000001a4 .L0 
C:\Users\GTSAIN~1\AppData\Local\Temp\ccIslvt7.s:369    .text.drawing:00000000000001aa .L0 
C:\Users\GTSAIN~1\AppData\Local\Temp\ccIslvt7.s:370    .text.drawing:00000000000001aa .L0 
C:\Users\GTSAIN~1\AppData\Local\Temp\ccIslvt7.s:373    .text.drawing:00000000000001b0 .L0 
C:\Users\GTSAIN~1\AppData\Local\Temp\ccIslvt7.s:376    .text.drawing:00000000000001b2 .L0 
C:\Users\GTSAIN~1\AppData\Local\Temp\ccIslvt7.s:377    .text.drawing:00000000000001b2 .L0 
C:\Users\GTSAIN~1\AppData\Local\Temp\ccIslvt7.s:380    .text.drawing:00000000000001ba .L0 
C:\Users\GTSAIN~1\AppData\Local\Temp\ccIslvt7.s:381    .text.drawing:00000000000001ba .L0 
C:\Users\GTSAIN~1\AppData\Local\Temp\ccIslvt7.s:384    .text.drawing:00000000000001be .L0 
C:\Users\GTSAIN~1\AppData\Local\Temp\ccIslvt7.s:389    .text.drawing:00000000000001c2 .L0 
C:\Users\GTSAIN~1\AppData\Local\Temp\ccIslvt7.s:390    .text.drawing:00000000000001c2 .L0 
C:\Users\GTSAIN~1\AppData\Local\Temp\ccIslvt7.s:392    .text.drawing:00000000000001c4 .L0 
C:\Users\GTSAIN~1\AppData\Local\Temp\ccIslvt7.s:394    .text.drawing:00000000000001c6 .L0 
C:\Users\GTSAIN~1\AppData\Local\Temp\ccIslvt7.s:396    .text.drawing:00000000000001c8 .L0 
C:\Users\GTSAIN~1\AppData\Local\Temp\ccIslvt7.s:397    .text.drawing:00000000000001c8 .L0 
C:\Users\GTSAIN~1\AppData\Local\Temp\ccIslvt7.s:399    .text.drawing:00000000000001cc .L0 
C:\Users\GTSAIN~1\AppData\Local\Temp\ccIslvt7.s:402    .text.drawing:00000000000001ce .L0 
C:\Users\GTSAIN~1\AppData\Local\Temp\ccIslvt7.s:403    .text.drawing:00000000000001ce .L0 
C:\Users\GTSAIN~1\AppData\Local\Temp\ccIslvt7.s:405    .text.drawing:00000000000001d0 .L0 
C:\Users\GTSAIN~1\AppData\Local\Temp\ccIslvt7.s:407    .text.drawing:00000000000001d4 .L0 
C:\Users\GTSAIN~1\AppData\Local\Temp\ccIslvt7.s:413    .text.drawing:00000000000001dc .L0 
C:\Users\GTSAIN~1\AppData\Local\Temp\ccIslvt7.s:414    .text.drawing:00000000000001dc .L0 
C:\Users\GTSAIN~1\AppData\Local\Temp\ccIslvt7.s:416    .text.drawing:00000000000001e0 .L0 
C:\Users\GTSAIN~1\AppData\Local\Temp\ccIslvt7.s:418    .text.drawing:00000000000001e4 .L0 
C:\Users\GTSAIN~1\AppData\Local\Temp\ccIslvt7.s:419    .text.drawing:00000000000001e4 .L0 
C:\Users\GTSAIN~1\AppData\Local\Temp\ccIslvt7.s:421    .text.drawing:00000000000001e6 .L0 
C:\Users\GTSAIN~1\AppData\Local\Temp\ccIslvt7.s:423    .text.drawing:00000000000001ea .L0 
C:\Users\GTSAIN~1\AppData\Local\Temp\ccIslvt7.s:424    .text.drawing:00000000000001ea .L0 
C:\Users\GTSAIN~1\AppData\Local\Temp\ccIslvt7.s:427    .text.drawing:00000000000001f0 .L0 
C:\Users\GTSAIN~1\AppData\Local\Temp\ccIslvt7.s:428    .text.drawing:00000000000001f0 .L0 
C:\Users\GTSAIN~1\AppData\Local\Temp\ccIslvt7.s:431    .text.drawing:00000000000001f6 .L0 
C:\Users\GTSAIN~1\AppData\Local\Temp\ccIslvt7.s:435    .text.drawing:00000000000001fc .L0 
C:\Users\GTSAIN~1\AppData\Local\Temp\ccIslvt7.s:436    .text.drawing:00000000000001fc .L0 
C:\Users\GTSAIN~1\AppData\Local\Temp\ccIslvt7.s:439    .text.drawing:0000000000000202 .L0 
C:\Users\GTSAIN~1\AppData\Local\Temp\ccIslvt7.s:440    .text.drawing:0000000000000202 .L0 
C:\Users\GTSAIN~1\AppData\Local\Temp\ccIslvt7.s:443    .text.drawing:0000000000000208 .L0 
C:\Users\GTSAIN~1\AppData\Local\Temp\ccIslvt7.s:446    .text.drawing:000000000000020a .L0 
C:\Users\GTSAIN~1\AppData\Local\Temp\ccIslvt7.s:447    .text.drawing:000000000000020a .L0 
GAS LISTING C:\Users\GTSAIN~1\AppData\Local\Temp\ccIslvt7.s 			page 54


C:\Users\GTSAIN~1\AppData\Local\Temp\ccIslvt7.s:450    .text.drawing:0000000000000212 .L0 
C:\Users\GTSAIN~1\AppData\Local\Temp\ccIslvt7.s:451    .text.drawing:0000000000000212 .L0 
C:\Users\GTSAIN~1\AppData\Local\Temp\ccIslvt7.s:454    .text.drawing:0000000000000216 .L0 
C:\Users\GTSAIN~1\AppData\Local\Temp\ccIslvt7.s:459    .text.drawing:000000000000021a .L0 
C:\Users\GTSAIN~1\AppData\Local\Temp\ccIslvt7.s:460    .text.drawing:000000000000021a .L0 
C:\Users\GTSAIN~1\AppData\Local\Temp\ccIslvt7.s:462    .text.drawing:000000000000021c .L0 
C:\Users\GTSAIN~1\AppData\Local\Temp\ccIslvt7.s:464    .text.drawing:000000000000021e .L0 
C:\Users\GTSAIN~1\AppData\Local\Temp\ccIslvt7.s:466    .text.drawing:0000000000000220 .L0 
C:\Users\GTSAIN~1\AppData\Local\Temp\ccIslvt7.s:467    .text.drawing:0000000000000220 .L0 
C:\Users\GTSAIN~1\AppData\Local\Temp\ccIslvt7.s:469    .text.drawing:0000000000000224 .L0 
C:\Users\GTSAIN~1\AppData\Local\Temp\ccIslvt7.s:472    .text.drawing:0000000000000226 .L0 
C:\Users\GTSAIN~1\AppData\Local\Temp\ccIslvt7.s:473    .text.drawing:0000000000000226 .L0 
C:\Users\GTSAIN~1\AppData\Local\Temp\ccIslvt7.s:475    .text.drawing:0000000000000228 .L0 
C:\Users\GTSAIN~1\AppData\Local\Temp\ccIslvt7.s:477    .text.drawing:000000000000022c .L0 
C:\Users\GTSAIN~1\AppData\Local\Temp\ccIslvt7.s:483    .text.drawing:0000000000000234 .L0 
C:\Users\GTSAIN~1\AppData\Local\Temp\ccIslvt7.s:484    .text.drawing:0000000000000234 .L0 
C:\Users\GTSAIN~1\AppData\Local\Temp\ccIslvt7.s:486    .text.drawing:0000000000000238 .L0 
C:\Users\GTSAIN~1\AppData\Local\Temp\ccIslvt7.s:488    .text.drawing:000000000000023c .L0 
C:\Users\GTSAIN~1\AppData\Local\Temp\ccIslvt7.s:489    .text.drawing:000000000000023c .L0 
C:\Users\GTSAIN~1\AppData\Local\Temp\ccIslvt7.s:491    .text.drawing:000000000000023e .L0 
C:\Users\GTSAIN~1\AppData\Local\Temp\ccIslvt7.s:493    .text.drawing:0000000000000242 .L0 
C:\Users\GTSAIN~1\AppData\Local\Temp\ccIslvt7.s:494    .text.drawing:0000000000000242 .L0 
C:\Users\GTSAIN~1\AppData\Local\Temp\ccIslvt7.s:497    .text.drawing:0000000000000248 .L0 
C:\Users\GTSAIN~1\AppData\Local\Temp\ccIslvt7.s:498    .text.drawing:0000000000000248 .L0 
C:\Users\GTSAIN~1\AppData\Local\Temp\ccIslvt7.s:501    .text.drawing:000000000000024e .L0 
C:\Users\GTSAIN~1\AppData\Local\Temp\ccIslvt7.s:505    .text.drawing:0000000000000254 .L0 
C:\Users\GTSAIN~1\AppData\Local\Temp\ccIslvt7.s:506    .text.drawing:0000000000000254 .L0 
C:\Users\GTSAIN~1\AppData\Local\Temp\ccIslvt7.s:509    .text.drawing:000000000000025a .L0 
C:\Users\GTSAIN~1\AppData\Local\Temp\ccIslvt7.s:510    .text.drawing:000000000000025a .L0 
C:\Users\GTSAIN~1\AppData\Local\Temp\ccIslvt7.s:513    .text.drawing:0000000000000260 .L0 
C:\Users\GTSAIN~1\AppData\Local\Temp\ccIslvt7.s:516    .text.drawing:0000000000000262 .L0 
C:\Users\GTSAIN~1\AppData\Local\Temp\ccIslvt7.s:517    .text.drawing:0000000000000262 .L0 
C:\Users\GTSAIN~1\AppData\Local\Temp\ccIslvt7.s:520    .text.drawing:000000000000026a .L0 
C:\Users\GTSAIN~1\AppData\Local\Temp\ccIslvt7.s:521    .text.drawing:000000000000026a .L0 
C:\Users\GTSAIN~1\AppData\Local\Temp\ccIslvt7.s:524    .text.drawing:000000000000026e .L0 
C:\Users\GTSAIN~1\AppData\Local\Temp\ccIslvt7.s:529    .text.drawing:0000000000000272 .L0 
C:\Users\GTSAIN~1\AppData\Local\Temp\ccIslvt7.s:530    .text.drawing:0000000000000272 .L0 
C:\Users\GTSAIN~1\AppData\Local\Temp\ccIslvt7.s:532    .text.drawing:0000000000000274 .L0 
C:\Users\GTSAIN~1\AppData\Local\Temp\ccIslvt7.s:534    .text.drawing:0000000000000276 .L0 
C:\Users\GTSAIN~1\AppData\Local\Temp\ccIslvt7.s:536    .text.drawing:0000000000000278 .L0 
C:\Users\GTSAIN~1\AppData\Local\Temp\ccIslvt7.s:537    .text.drawing:0000000000000278 .L0 
C:\Users\GTSAIN~1\AppData\Local\Temp\ccIslvt7.s:539    .text.drawing:000000000000027c .L0 
C:\Users\GTSAIN~1\AppData\Local\Temp\ccIslvt7.s:542    .text.drawing:000000000000027e .L0 
C:\Users\GTSAIN~1\AppData\Local\Temp\ccIslvt7.s:543    .text.drawing:000000000000027e .L0 
C:\Users\GTSAIN~1\AppData\Local\Temp\ccIslvt7.s:545    .text.drawing:0000000000000280 .L0 
C:\Users\GTSAIN~1\AppData\Local\Temp\ccIslvt7.s:547    .text.drawing:0000000000000284 .L0 
C:\Users\GTSAIN~1\AppData\Local\Temp\ccIslvt7.s:553    .text.drawing:000000000000028c .L0 
C:\Users\GTSAIN~1\AppData\Local\Temp\ccIslvt7.s:554    .text.drawing:000000000000028c .L0 
C:\Users\GTSAIN~1\AppData\Local\Temp\ccIslvt7.s:556    .text.drawing:0000000000000290 .L0 
C:\Users\GTSAIN~1\AppData\Local\Temp\ccIslvt7.s:558    .text.drawing:0000000000000294 .L0 
C:\Users\GTSAIN~1\AppData\Local\Temp\ccIslvt7.s:559    .text.drawing:0000000000000294 .L0 
C:\Users\GTSAIN~1\AppData\Local\Temp\ccIslvt7.s:561    .text.drawing:0000000000000296 .L0 
C:\Users\GTSAIN~1\AppData\Local\Temp\ccIslvt7.s:563    .text.drawing:000000000000029a .L0 
C:\Users\GTSAIN~1\AppData\Local\Temp\ccIslvt7.s:564    .text.drawing:000000000000029a .L0 
C:\Users\GTSAIN~1\AppData\Local\Temp\ccIslvt7.s:567    .text.drawing:00000000000002a0 .L0 
C:\Users\GTSAIN~1\AppData\Local\Temp\ccIslvt7.s:568    .text.drawing:00000000000002a0 .L0 
C:\Users\GTSAIN~1\AppData\Local\Temp\ccIslvt7.s:571    .text.drawing:00000000000002a6 .L0 
GAS LISTING C:\Users\GTSAIN~1\AppData\Local\Temp\ccIslvt7.s 			page 55


C:\Users\GTSAIN~1\AppData\Local\Temp\ccIslvt7.s:575    .text.drawing:00000000000002ac .L0 
C:\Users\GTSAIN~1\AppData\Local\Temp\ccIslvt7.s:576    .text.drawing:00000000000002ac .L0 
C:\Users\GTSAIN~1\AppData\Local\Temp\ccIslvt7.s:579    .text.drawing:00000000000002b2 .L0 
C:\Users\GTSAIN~1\AppData\Local\Temp\ccIslvt7.s:580    .text.drawing:00000000000002b2 .L0 
C:\Users\GTSAIN~1\AppData\Local\Temp\ccIslvt7.s:583    .text.drawing:00000000000002b8 .L0 
C:\Users\GTSAIN~1\AppData\Local\Temp\ccIslvt7.s:586    .text.drawing:00000000000002ba .L0 
C:\Users\GTSAIN~1\AppData\Local\Temp\ccIslvt7.s:587    .text.drawing:00000000000002ba .L0 
C:\Users\GTSAIN~1\AppData\Local\Temp\ccIslvt7.s:590    .text.drawing:00000000000002c2 .L0 
C:\Users\GTSAIN~1\AppData\Local\Temp\ccIslvt7.s:591    .text.drawing:00000000000002c2 .L0 
C:\Users\GTSAIN~1\AppData\Local\Temp\ccIslvt7.s:594    .text.drawing:00000000000002c6 .L0 
C:\Users\GTSAIN~1\AppData\Local\Temp\ccIslvt7.s:599    .text.drawing:00000000000002ca .L0 
C:\Users\GTSAIN~1\AppData\Local\Temp\ccIslvt7.s:600    .text.drawing:00000000000002ca .L0 
C:\Users\GTSAIN~1\AppData\Local\Temp\ccIslvt7.s:602    .text.drawing:00000000000002cc .L0 
C:\Users\GTSAIN~1\AppData\Local\Temp\ccIslvt7.s:604    .text.drawing:00000000000002ce .L0 
C:\Users\GTSAIN~1\AppData\Local\Temp\ccIslvt7.s:606    .text.drawing:00000000000002d0 .L0 
C:\Users\GTSAIN~1\AppData\Local\Temp\ccIslvt7.s:607    .text.drawing:00000000000002d0 .L0 
C:\Users\GTSAIN~1\AppData\Local\Temp\ccIslvt7.s:609    .text.drawing:00000000000002d4 .L0 
C:\Users\GTSAIN~1\AppData\Local\Temp\ccIslvt7.s:612    .text.drawing:00000000000002d6 .L0 
C:\Users\GTSAIN~1\AppData\Local\Temp\ccIslvt7.s:613    .text.drawing:00000000000002d6 .L0 
C:\Users\GTSAIN~1\AppData\Local\Temp\ccIslvt7.s:615    .text.drawing:00000000000002d8 .L0 
C:\Users\GTSAIN~1\AppData\Local\Temp\ccIslvt7.s:617    .text.drawing:00000000000002dc .L0 
C:\Users\GTSAIN~1\AppData\Local\Temp\ccIslvt7.s:623    .text.drawing:00000000000002e4 .L0 
C:\Users\GTSAIN~1\AppData\Local\Temp\ccIslvt7.s:624    .text.drawing:00000000000002e4 .L0 
C:\Users\GTSAIN~1\AppData\Local\Temp\ccIslvt7.s:626    .text.drawing:00000000000002e8 .L0 
C:\Users\GTSAIN~1\AppData\Local\Temp\ccIslvt7.s:628    .text.drawing:00000000000002ec .L0 
C:\Users\GTSAIN~1\AppData\Local\Temp\ccIslvt7.s:629    .text.drawing:00000000000002ec .L0 
C:\Users\GTSAIN~1\AppData\Local\Temp\ccIslvt7.s:631    .text.drawing:00000000000002ee .L0 
C:\Users\GTSAIN~1\AppData\Local\Temp\ccIslvt7.s:633    .text.drawing:00000000000002f2 .L0 
C:\Users\GTSAIN~1\AppData\Local\Temp\ccIslvt7.s:634    .text.drawing:00000000000002f2 .L0 
C:\Users\GTSAIN~1\AppData\Local\Temp\ccIslvt7.s:637    .text.drawing:00000000000002f8 .L0 
C:\Users\GTSAIN~1\AppData\Local\Temp\ccIslvt7.s:638    .text.drawing:00000000000002f8 .L0 
C:\Users\GTSAIN~1\AppData\Local\Temp\ccIslvt7.s:641    .text.drawing:00000000000002fe .L0 
C:\Users\GTSAIN~1\AppData\Local\Temp\ccIslvt7.s:645    .text.drawing:0000000000000304 .L0 
C:\Users\GTSAIN~1\AppData\Local\Temp\ccIslvt7.s:646    .text.drawing:0000000000000304 .L0 
C:\Users\GTSAIN~1\AppData\Local\Temp\ccIslvt7.s:649    .text.drawing:000000000000030a .L0 
C:\Users\GTSAIN~1\AppData\Local\Temp\ccIslvt7.s:650    .text.drawing:000000000000030a .L0 
C:\Users\GTSAIN~1\AppData\Local\Temp\ccIslvt7.s:653    .text.drawing:0000000000000310 .L0 
C:\Users\GTSAIN~1\AppData\Local\Temp\ccIslvt7.s:656    .text.drawing:0000000000000312 .L0 
C:\Users\GTSAIN~1\AppData\Local\Temp\ccIslvt7.s:657    .text.drawing:0000000000000312 .L0 
C:\Users\GTSAIN~1\AppData\Local\Temp\ccIslvt7.s:660    .text.drawing:000000000000031a .L0 
C:\Users\GTSAIN~1\AppData\Local\Temp\ccIslvt7.s:661    .text.drawing:000000000000031a .L0 
C:\Users\GTSAIN~1\AppData\Local\Temp\ccIslvt7.s:664    .text.drawing:000000000000031e .L0 
C:\Users\GTSAIN~1\AppData\Local\Temp\ccIslvt7.s:669    .text.drawing:0000000000000322 .L0 
C:\Users\GTSAIN~1\AppData\Local\Temp\ccIslvt7.s:670    .text.drawing:0000000000000322 .L0 
C:\Users\GTSAIN~1\AppData\Local\Temp\ccIslvt7.s:672    .text.drawing:0000000000000324 .L0 
C:\Users\GTSAIN~1\AppData\Local\Temp\ccIslvt7.s:674    .text.drawing:0000000000000326 .L0 
C:\Users\GTSAIN~1\AppData\Local\Temp\ccIslvt7.s:676    .text.drawing:0000000000000328 .L0 
C:\Users\GTSAIN~1\AppData\Local\Temp\ccIslvt7.s:677    .text.drawing:0000000000000328 .L0 
C:\Users\GTSAIN~1\AppData\Local\Temp\ccIslvt7.s:679    .text.drawing:000000000000032c .L0 
C:\Users\GTSAIN~1\AppData\Local\Temp\ccIslvt7.s:682    .text.drawing:000000000000032e .L0 
C:\Users\GTSAIN~1\AppData\Local\Temp\ccIslvt7.s:683    .text.drawing:000000000000032e .L0 
C:\Users\GTSAIN~1\AppData\Local\Temp\ccIslvt7.s:685    .text.drawing:0000000000000330 .L0 
C:\Users\GTSAIN~1\AppData\Local\Temp\ccIslvt7.s:687    .text.drawing:0000000000000334 .L0 
C:\Users\GTSAIN~1\AppData\Local\Temp\ccIslvt7.s:693    .text.drawing:000000000000033c .L0 
C:\Users\GTSAIN~1\AppData\Local\Temp\ccIslvt7.s:694    .text.drawing:000000000000033c .L0 
C:\Users\GTSAIN~1\AppData\Local\Temp\ccIslvt7.s:696    .text.drawing:0000000000000340 .L0 
C:\Users\GTSAIN~1\AppData\Local\Temp\ccIslvt7.s:698    .text.drawing:0000000000000344 .L0 
GAS LISTING C:\Users\GTSAIN~1\AppData\Local\Temp\ccIslvt7.s 			page 56


C:\Users\GTSAIN~1\AppData\Local\Temp\ccIslvt7.s:699    .text.drawing:0000000000000344 .L0 
C:\Users\GTSAIN~1\AppData\Local\Temp\ccIslvt7.s:701    .text.drawing:0000000000000346 .L0 
C:\Users\GTSAIN~1\AppData\Local\Temp\ccIslvt7.s:703    .text.drawing:000000000000034a .L0 
C:\Users\GTSAIN~1\AppData\Local\Temp\ccIslvt7.s:704    .text.drawing:000000000000034a .L0 
C:\Users\GTSAIN~1\AppData\Local\Temp\ccIslvt7.s:707    .text.drawing:0000000000000350 .L0 
C:\Users\GTSAIN~1\AppData\Local\Temp\ccIslvt7.s:708    .text.drawing:0000000000000350 .L0 
C:\Users\GTSAIN~1\AppData\Local\Temp\ccIslvt7.s:711    .text.drawing:0000000000000356 .L0 
C:\Users\GTSAIN~1\AppData\Local\Temp\ccIslvt7.s:715    .text.drawing:000000000000035c .L0 
C:\Users\GTSAIN~1\AppData\Local\Temp\ccIslvt7.s:716    .text.drawing:000000000000035c .L0 
C:\Users\GTSAIN~1\AppData\Local\Temp\ccIslvt7.s:719    .text.drawing:0000000000000362 .L0 
C:\Users\GTSAIN~1\AppData\Local\Temp\ccIslvt7.s:720    .text.drawing:0000000000000362 .L0 
C:\Users\GTSAIN~1\AppData\Local\Temp\ccIslvt7.s:723    .text.drawing:0000000000000368 .L0 
C:\Users\GTSAIN~1\AppData\Local\Temp\ccIslvt7.s:726    .text.drawing:000000000000036a .L0 
C:\Users\GTSAIN~1\AppData\Local\Temp\ccIslvt7.s:727    .text.drawing:000000000000036a .L0 
C:\Users\GTSAIN~1\AppData\Local\Temp\ccIslvt7.s:730    .text.drawing:0000000000000372 .L0 
C:\Users\GTSAIN~1\AppData\Local\Temp\ccIslvt7.s:731    .text.drawing:0000000000000372 .L0 
C:\Users\GTSAIN~1\AppData\Local\Temp\ccIslvt7.s:734    .text.drawing:0000000000000376 .L0 
C:\Users\GTSAIN~1\AppData\Local\Temp\ccIslvt7.s:739    .text.drawing:000000000000037a .L0 
C:\Users\GTSAIN~1\AppData\Local\Temp\ccIslvt7.s:740    .text.drawing:000000000000037a .L0 
C:\Users\GTSAIN~1\AppData\Local\Temp\ccIslvt7.s:742    .text.drawing:000000000000037c .L0 
C:\Users\GTSAIN~1\AppData\Local\Temp\ccIslvt7.s:744    .text.drawing:000000000000037e .L0 
C:\Users\GTSAIN~1\AppData\Local\Temp\ccIslvt7.s:746    .text.drawing:0000000000000380 .L0 
C:\Users\GTSAIN~1\AppData\Local\Temp\ccIslvt7.s:747    .text.drawing:0000000000000380 .L0 
C:\Users\GTSAIN~1\AppData\Local\Temp\ccIslvt7.s:749    .text.drawing:0000000000000384 .L0 
C:\Users\GTSAIN~1\AppData\Local\Temp\ccIslvt7.s:752    .text.drawing:0000000000000386 .L0 
C:\Users\GTSAIN~1\AppData\Local\Temp\ccIslvt7.s:753    .text.drawing:0000000000000386 .L0 
C:\Users\GTSAIN~1\AppData\Local\Temp\ccIslvt7.s:755    .text.drawing:000000000000038a .L0 
C:\Users\GTSAIN~1\AppData\Local\Temp\ccIslvt7.s:761    .text.drawing:0000000000000392 .L0 
C:\Users\GTSAIN~1\AppData\Local\Temp\ccIslvt7.s:762    .text.drawing:0000000000000392 .L0 
C:\Users\GTSAIN~1\AppData\Local\Temp\ccIslvt7.s:764    .text.drawing:0000000000000396 .L0 
C:\Users\GTSAIN~1\AppData\Local\Temp\ccIslvt7.s:766    .text.drawing:000000000000039a .L0 
C:\Users\GTSAIN~1\AppData\Local\Temp\ccIslvt7.s:767    .text.drawing:000000000000039a .L0 
C:\Users\GTSAIN~1\AppData\Local\Temp\ccIslvt7.s:769    .text.drawing:000000000000039c .L0 
C:\Users\GTSAIN~1\AppData\Local\Temp\ccIslvt7.s:771    .text.drawing:00000000000003a0 .L0 
C:\Users\GTSAIN~1\AppData\Local\Temp\ccIslvt7.s:772    .text.drawing:00000000000003a0 .L0 
C:\Users\GTSAIN~1\AppData\Local\Temp\ccIslvt7.s:775    .text.drawing:00000000000003a6 .L0 
C:\Users\GTSAIN~1\AppData\Local\Temp\ccIslvt7.s:776    .text.drawing:00000000000003a6 .L0 
C:\Users\GTSAIN~1\AppData\Local\Temp\ccIslvt7.s:779    .text.drawing:00000000000003ac .L0 
C:\Users\GTSAIN~1\AppData\Local\Temp\ccIslvt7.s:783    .text.drawing:00000000000003b2 .L0 
C:\Users\GTSAIN~1\AppData\Local\Temp\ccIslvt7.s:784    .text.drawing:00000000000003b2 .L0 
C:\Users\GTSAIN~1\AppData\Local\Temp\ccIslvt7.s:787    .text.drawing:00000000000003b8 .L0 
C:\Users\GTSAIN~1\AppData\Local\Temp\ccIslvt7.s:788    .text.drawing:00000000000003b8 .L0 
C:\Users\GTSAIN~1\AppData\Local\Temp\ccIslvt7.s:791    .text.drawing:00000000000003be .L0 
C:\Users\GTSAIN~1\AppData\Local\Temp\ccIslvt7.s:794    .text.drawing:00000000000003c0 .L0 
C:\Users\GTSAIN~1\AppData\Local\Temp\ccIslvt7.s:795    .text.drawing:00000000000003c0 .L0 
C:\Users\GTSAIN~1\AppData\Local\Temp\ccIslvt7.s:798    .text.drawing:00000000000003c8 .L0 
C:\Users\GTSAIN~1\AppData\Local\Temp\ccIslvt7.s:799    .text.drawing:00000000000003c8 .L0 
C:\Users\GTSAIN~1\AppData\Local\Temp\ccIslvt7.s:802    .text.drawing:00000000000003cc .L0 
C:\Users\GTSAIN~1\AppData\Local\Temp\ccIslvt7.s:807    .text.drawing:00000000000003d0 .L0 
C:\Users\GTSAIN~1\AppData\Local\Temp\ccIslvt7.s:808    .text.drawing:00000000000003d0 .L0 
C:\Users\GTSAIN~1\AppData\Local\Temp\ccIslvt7.s:815    .text.drawing:00000000000003de .L0 
C:\Users\GTSAIN~1\AppData\Local\Temp\ccIslvt7.s:816    .text.drawing:00000000000003de .L0 
C:\Users\GTSAIN~1\AppData\Local\Temp\ccIslvt7.s:821    .text.drawing:00000000000003e4 .L0 
C:\Users\GTSAIN~1\AppData\Local\Temp\ccIslvt7.s:822    .text.drawing:00000000000003e4 .L0 
C:\Users\GTSAIN~1\AppData\Local\Temp\ccIslvt7.s:825    .text.drawing:00000000000003ec .L0 
C:\Users\GTSAIN~1\AppData\Local\Temp\ccIslvt7.s:826    .text.drawing:00000000000003ec .L0 
C:\Users\GTSAIN~1\AppData\Local\Temp\ccIslvt7.s:829    .text.drawing:00000000000003ee .L0 
GAS LISTING C:\Users\GTSAIN~1\AppData\Local\Temp\ccIslvt7.s 			page 57


C:\Users\GTSAIN~1\AppData\Local\Temp\ccIslvt7.s:831    .text.drawing:00000000000003f2 .L0 
C:\Users\GTSAIN~1\AppData\Local\Temp\ccIslvt7.s:832    .text.drawing:00000000000003f2 .L0 
C:\Users\GTSAIN~1\AppData\Local\Temp\ccIslvt7.s:835    .text.drawing:00000000000003f8 .L0 
C:\Users\GTSAIN~1\AppData\Local\Temp\ccIslvt7.s:836    .text.drawing:00000000000003f8 .L0 
C:\Users\GTSAIN~1\AppData\Local\Temp\ccIslvt7.s:839    .text.drawing:00000000000003fe .L0 
C:\Users\GTSAIN~1\AppData\Local\Temp\ccIslvt7.s:840    .text.drawing:00000000000003fe .L0 
C:\Users\GTSAIN~1\AppData\Local\Temp\ccIslvt7.s:843    .text.drawing:0000000000000404 .L0 
C:\Users\GTSAIN~1\AppData\Local\Temp\ccIslvt7.s:844    .text.drawing:0000000000000404 .L0 
C:\Users\GTSAIN~1\AppData\Local\Temp\ccIslvt7.s:847    .text.drawing:000000000000040a .L0 
C:\Users\GTSAIN~1\AppData\Local\Temp\ccIslvt7.s:848    .text.drawing:000000000000040a .L0 
C:\Users\GTSAIN~1\AppData\Local\Temp\ccIslvt7.s:851    .text.drawing:0000000000000410 .L0 
C:\Users\GTSAIN~1\AppData\Local\Temp\ccIslvt7.s:852    .text.drawing:0000000000000410 .L0 
C:\Users\GTSAIN~1\AppData\Local\Temp\ccIslvt7.s:855    .text.drawing:0000000000000416 .L0 
C:\Users\GTSAIN~1\AppData\Local\Temp\ccIslvt7.s:856    .text.drawing:0000000000000416 .L0 
C:\Users\GTSAIN~1\AppData\Local\Temp\ccIslvt7.s:859    .text.drawing:000000000000041c .L0 
C:\Users\GTSAIN~1\AppData\Local\Temp\ccIslvt7.s:860    .text.drawing:000000000000041c .L0 
C:\Users\GTSAIN~1\AppData\Local\Temp\ccIslvt7.s:863    .text.drawing:0000000000000422 .L0 
C:\Users\GTSAIN~1\AppData\Local\Temp\ccIslvt7.s:864    .text.drawing:0000000000000422 .L0 
C:\Users\GTSAIN~1\AppData\Local\Temp\ccIslvt7.s:867    .text.drawing:0000000000000428 .L0 
C:\Users\GTSAIN~1\AppData\Local\Temp\ccIslvt7.s:868    .text.drawing:0000000000000428 .L0 
C:\Users\GTSAIN~1\AppData\Local\Temp\ccIslvt7.s:871    .text.drawing:0000000000000430 .L0 
C:\Users\GTSAIN~1\AppData\Local\Temp\ccIslvt7.s:875    .text.drawing:0000000000000432 .L0 
C:\Users\GTSAIN~1\AppData\Local\Temp\ccIslvt7.s:876    .text.drawing:0000000000000432 .L0 
C:\Users\GTSAIN~1\AppData\Local\Temp\ccIslvt7.s:881    .text.drawing:0000000000000438 .L0 
C:\Users\GTSAIN~1\AppData\Local\Temp\ccIslvt7.s:882    .text.drawing:0000000000000438 .L0 
C:\Users\GTSAIN~1\AppData\Local\Temp\ccIslvt7.s:884    .text.drawing:000000000000043c .L0 
C:\Users\GTSAIN~1\AppData\Local\Temp\ccIslvt7.s:885    .text.drawing:000000000000043c .L0 
C:\Users\GTSAIN~1\AppData\Local\Temp\ccIslvt7.s:888    .text.drawing:0000000000000442 .L0 
C:\Users\GTSAIN~1\AppData\Local\Temp\ccIslvt7.s:889    .text.drawing:0000000000000442 .L0 
C:\Users\GTSAIN~1\AppData\Local\Temp\ccIslvt7.s:891    .text.drawing:0000000000000446 .L0 
C:\Users\GTSAIN~1\AppData\Local\Temp\ccIslvt7.s:892    .text.drawing:0000000000000446 .L0 
C:\Users\GTSAIN~1\AppData\Local\Temp\ccIslvt7.s:894    .text.drawing:000000000000044a .L0 
C:\Users\GTSAIN~1\AppData\Local\Temp\ccIslvt7.s:895    .text.drawing:000000000000044a .L0 
C:\Users\GTSAIN~1\AppData\Local\Temp\ccIslvt7.s:897    .text.drawing:000000000000044c .L0 
C:\Users\GTSAIN~1\AppData\Local\Temp\ccIslvt7.s:898    .text.drawing:000000000000044c .L0 
C:\Users\GTSAIN~1\AppData\Local\Temp\ccIslvt7.s:900    .text.drawing:000000000000044e .L0 
C:\Users\GTSAIN~1\AppData\Local\Temp\ccIslvt7.s:901    .text.drawing:000000000000044e .L0 
C:\Users\GTSAIN~1\AppData\Local\Temp\ccIslvt7.s:903    .text.drawing:0000000000000452 .L0 
C:\Users\GTSAIN~1\AppData\Local\Temp\ccIslvt7.s:904    .text.drawing:0000000000000452 .L0 
C:\Users\GTSAIN~1\AppData\Local\Temp\ccIslvt7.s:906    .text.drawing:0000000000000456 .L0 
C:\Users\GTSAIN~1\AppData\Local\Temp\ccIslvt7.s:907    .text.drawing:0000000000000456 .L0 
C:\Users\GTSAIN~1\AppData\Local\Temp\ccIslvt7.s:911    .text.drawing:000000000000045c .L0 
C:\Users\GTSAIN~1\AppData\Local\Temp\ccIslvt7.s:912    .text.drawing:000000000000045c .L0 
C:\Users\GTSAIN~1\AppData\Local\Temp\ccIslvt7.s:914    .text.drawing:0000000000000460 .L0 
C:\Users\GTSAIN~1\AppData\Local\Temp\ccIslvt7.s:915    .text.drawing:0000000000000460 .L0 
C:\Users\GTSAIN~1\AppData\Local\Temp\ccIslvt7.s:918    .text.drawing:0000000000000466 .L0 
C:\Users\GTSAIN~1\AppData\Local\Temp\ccIslvt7.s:919    .text.drawing:0000000000000466 .L0 
C:\Users\GTSAIN~1\AppData\Local\Temp\ccIslvt7.s:921    .text.drawing:000000000000046a .L0 
C:\Users\GTSAIN~1\AppData\Local\Temp\ccIslvt7.s:922    .text.drawing:000000000000046a .L0 
C:\Users\GTSAIN~1\AppData\Local\Temp\ccIslvt7.s:924    .text.drawing:000000000000046e .L0 
C:\Users\GTSAIN~1\AppData\Local\Temp\ccIslvt7.s:925    .text.drawing:000000000000046e .L0 
C:\Users\GTSAIN~1\AppData\Local\Temp\ccIslvt7.s:927    .text.drawing:0000000000000470 .L0 
C:\Users\GTSAIN~1\AppData\Local\Temp\ccIslvt7.s:928    .text.drawing:0000000000000470 .L0 
C:\Users\GTSAIN~1\AppData\Local\Temp\ccIslvt7.s:930    .text.drawing:0000000000000472 .L0 
C:\Users\GTSAIN~1\AppData\Local\Temp\ccIslvt7.s:931    .text.drawing:0000000000000472 .L0 
C:\Users\GTSAIN~1\AppData\Local\Temp\ccIslvt7.s:933    .text.drawing:0000000000000476 .L0 
C:\Users\GTSAIN~1\AppData\Local\Temp\ccIslvt7.s:934    .text.drawing:0000000000000476 .L0 
GAS LISTING C:\Users\GTSAIN~1\AppData\Local\Temp\ccIslvt7.s 			page 58


C:\Users\GTSAIN~1\AppData\Local\Temp\ccIslvt7.s:936    .text.drawing:000000000000047a .L0 
C:\Users\GTSAIN~1\AppData\Local\Temp\ccIslvt7.s:937    .text.drawing:000000000000047a .L0 
C:\Users\GTSAIN~1\AppData\Local\Temp\ccIslvt7.s:941    .text.drawing:0000000000000480 .L0 
C:\Users\GTSAIN~1\AppData\Local\Temp\ccIslvt7.s:942    .text.drawing:0000000000000480 .L0 
C:\Users\GTSAIN~1\AppData\Local\Temp\ccIslvt7.s:944    .text.drawing:0000000000000484 .L0 
C:\Users\GTSAIN~1\AppData\Local\Temp\ccIslvt7.s:945    .text.drawing:0000000000000484 .L0 
C:\Users\GTSAIN~1\AppData\Local\Temp\ccIslvt7.s:948    .text.drawing:000000000000048a .L0 
C:\Users\GTSAIN~1\AppData\Local\Temp\ccIslvt7.s:949    .text.drawing:000000000000048a .L0 
C:\Users\GTSAIN~1\AppData\Local\Temp\ccIslvt7.s:951    .text.drawing:000000000000048e .L0 
C:\Users\GTSAIN~1\AppData\Local\Temp\ccIslvt7.s:952    .text.drawing:000000000000048e .L0 
C:\Users\GTSAIN~1\AppData\Local\Temp\ccIslvt7.s:954    .text.drawing:0000000000000492 .L0 
C:\Users\GTSAIN~1\AppData\Local\Temp\ccIslvt7.s:955    .text.drawing:0000000000000492 .L0 
C:\Users\GTSAIN~1\AppData\Local\Temp\ccIslvt7.s:957    .text.drawing:0000000000000494 .L0 
C:\Users\GTSAIN~1\AppData\Local\Temp\ccIslvt7.s:958    .text.drawing:0000000000000494 .L0 
C:\Users\GTSAIN~1\AppData\Local\Temp\ccIslvt7.s:960    .text.drawing:0000000000000496 .L0 
C:\Users\GTSAIN~1\AppData\Local\Temp\ccIslvt7.s:961    .text.drawing:0000000000000496 .L0 
C:\Users\GTSAIN~1\AppData\Local\Temp\ccIslvt7.s:963    .text.drawing:000000000000049a .L0 
C:\Users\GTSAIN~1\AppData\Local\Temp\ccIslvt7.s:964    .text.drawing:000000000000049a .L0 
C:\Users\GTSAIN~1\AppData\Local\Temp\ccIslvt7.s:966    .text.drawing:000000000000049e .L0 
C:\Users\GTSAIN~1\AppData\Local\Temp\ccIslvt7.s:967    .text.drawing:000000000000049e .L0 
C:\Users\GTSAIN~1\AppData\Local\Temp\ccIslvt7.s:971    .text.drawing:00000000000004a4 .L0 
C:\Users\GTSAIN~1\AppData\Local\Temp\ccIslvt7.s:972    .text.drawing:00000000000004a4 .L0 
C:\Users\GTSAIN~1\AppData\Local\Temp\ccIslvt7.s:974    .text.drawing:00000000000004a8 .L0 
C:\Users\GTSAIN~1\AppData\Local\Temp\ccIslvt7.s:975    .text.drawing:00000000000004a8 .L0 
C:\Users\GTSAIN~1\AppData\Local\Temp\ccIslvt7.s:978    .text.drawing:00000000000004ae .L0 
C:\Users\GTSAIN~1\AppData\Local\Temp\ccIslvt7.s:979    .text.drawing:00000000000004ae .L0 
C:\Users\GTSAIN~1\AppData\Local\Temp\ccIslvt7.s:981    .text.drawing:00000000000004b2 .L0 
C:\Users\GTSAIN~1\AppData\Local\Temp\ccIslvt7.s:982    .text.drawing:00000000000004b2 .L0 
C:\Users\GTSAIN~1\AppData\Local\Temp\ccIslvt7.s:984    .text.drawing:00000000000004b6 .L0 
C:\Users\GTSAIN~1\AppData\Local\Temp\ccIslvt7.s:985    .text.drawing:00000000000004b6 .L0 
C:\Users\GTSAIN~1\AppData\Local\Temp\ccIslvt7.s:987    .text.drawing:00000000000004b8 .L0 
C:\Users\GTSAIN~1\AppData\Local\Temp\ccIslvt7.s:988    .text.drawing:00000000000004b8 .L0 
C:\Users\GTSAIN~1\AppData\Local\Temp\ccIslvt7.s:990    .text.drawing:00000000000004ba .L0 
C:\Users\GTSAIN~1\AppData\Local\Temp\ccIslvt7.s:991    .text.drawing:00000000000004ba .L0 
C:\Users\GTSAIN~1\AppData\Local\Temp\ccIslvt7.s:993    .text.drawing:00000000000004be .L0 
C:\Users\GTSAIN~1\AppData\Local\Temp\ccIslvt7.s:994    .text.drawing:00000000000004be .L0 
C:\Users\GTSAIN~1\AppData\Local\Temp\ccIslvt7.s:996    .text.drawing:00000000000004c2 .L0 
C:\Users\GTSAIN~1\AppData\Local\Temp\ccIslvt7.s:997    .text.drawing:00000000000004c2 .L0 
C:\Users\GTSAIN~1\AppData\Local\Temp\ccIslvt7.s:1001   .text.drawing:00000000000004c8 .L0 
C:\Users\GTSAIN~1\AppData\Local\Temp\ccIslvt7.s:1002   .text.drawing:00000000000004c8 .L0 
C:\Users\GTSAIN~1\AppData\Local\Temp\ccIslvt7.s:1004   .text.drawing:00000000000004cc .L0 
C:\Users\GTSAIN~1\AppData\Local\Temp\ccIslvt7.s:1005   .text.drawing:00000000000004cc .L0 
C:\Users\GTSAIN~1\AppData\Local\Temp\ccIslvt7.s:1008   .text.drawing:00000000000004d2 .L0 
C:\Users\GTSAIN~1\AppData\Local\Temp\ccIslvt7.s:1009   .text.drawing:00000000000004d2 .L0 
C:\Users\GTSAIN~1\AppData\Local\Temp\ccIslvt7.s:1011   .text.drawing:00000000000004d6 .L0 
C:\Users\GTSAIN~1\AppData\Local\Temp\ccIslvt7.s:1012   .text.drawing:00000000000004d6 .L0 
C:\Users\GTSAIN~1\AppData\Local\Temp\ccIslvt7.s:1014   .text.drawing:00000000000004da .L0 
C:\Users\GTSAIN~1\AppData\Local\Temp\ccIslvt7.s:1015   .text.drawing:00000000000004da .L0 
C:\Users\GTSAIN~1\AppData\Local\Temp\ccIslvt7.s:1017   .text.drawing:00000000000004dc .L0 
C:\Users\GTSAIN~1\AppData\Local\Temp\ccIslvt7.s:1018   .text.drawing:00000000000004dc .L0 
C:\Users\GTSAIN~1\AppData\Local\Temp\ccIslvt7.s:1020   .text.drawing:00000000000004de .L0 
C:\Users\GTSAIN~1\AppData\Local\Temp\ccIslvt7.s:1021   .text.drawing:00000000000004de .L0 
C:\Users\GTSAIN~1\AppData\Local\Temp\ccIslvt7.s:1023   .text.drawing:00000000000004e2 .L0 
C:\Users\GTSAIN~1\AppData\Local\Temp\ccIslvt7.s:1024   .text.drawing:00000000000004e2 .L0 
C:\Users\GTSAIN~1\AppData\Local\Temp\ccIslvt7.s:1026   .text.drawing:00000000000004e6 .L0 
C:\Users\GTSAIN~1\AppData\Local\Temp\ccIslvt7.s:1027   .text.drawing:00000000000004e6 .L0 
C:\Users\GTSAIN~1\AppData\Local\Temp\ccIslvt7.s:1031   .text.drawing:00000000000004ec .L0 
GAS LISTING C:\Users\GTSAIN~1\AppData\Local\Temp\ccIslvt7.s 			page 59


C:\Users\GTSAIN~1\AppData\Local\Temp\ccIslvt7.s:1032   .text.drawing:00000000000004ec .L0 
C:\Users\GTSAIN~1\AppData\Local\Temp\ccIslvt7.s:1034   .text.drawing:00000000000004f0 .L0 
C:\Users\GTSAIN~1\AppData\Local\Temp\ccIslvt7.s:1035   .text.drawing:00000000000004f0 .L0 
C:\Users\GTSAIN~1\AppData\Local\Temp\ccIslvt7.s:1038   .text.drawing:00000000000004f6 .L0 
C:\Users\GTSAIN~1\AppData\Local\Temp\ccIslvt7.s:1039   .text.drawing:00000000000004f6 .L0 
C:\Users\GTSAIN~1\AppData\Local\Temp\ccIslvt7.s:1041   .text.drawing:00000000000004fa .L0 
C:\Users\GTSAIN~1\AppData\Local\Temp\ccIslvt7.s:1042   .text.drawing:00000000000004fa .L0 
C:\Users\GTSAIN~1\AppData\Local\Temp\ccIslvt7.s:1044   .text.drawing:00000000000004fe .L0 
C:\Users\GTSAIN~1\AppData\Local\Temp\ccIslvt7.s:1045   .text.drawing:00000000000004fe .L0 
C:\Users\GTSAIN~1\AppData\Local\Temp\ccIslvt7.s:1047   .text.drawing:0000000000000500 .L0 
C:\Users\GTSAIN~1\AppData\Local\Temp\ccIslvt7.s:1048   .text.drawing:0000000000000500 .L0 
C:\Users\GTSAIN~1\AppData\Local\Temp\ccIslvt7.s:1050   .text.drawing:0000000000000502 .L0 
C:\Users\GTSAIN~1\AppData\Local\Temp\ccIslvt7.s:1051   .text.drawing:0000000000000502 .L0 
C:\Users\GTSAIN~1\AppData\Local\Temp\ccIslvt7.s:1053   .text.drawing:0000000000000506 .L0 
C:\Users\GTSAIN~1\AppData\Local\Temp\ccIslvt7.s:1054   .text.drawing:0000000000000506 .L0 
C:\Users\GTSAIN~1\AppData\Local\Temp\ccIslvt7.s:1056   .text.drawing:000000000000050a .L0 
C:\Users\GTSAIN~1\AppData\Local\Temp\ccIslvt7.s:1057   .text.drawing:000000000000050a .L0 
C:\Users\GTSAIN~1\AppData\Local\Temp\ccIslvt7.s:1061   .text.drawing:0000000000000510 .L0 
C:\Users\GTSAIN~1\AppData\Local\Temp\ccIslvt7.s:1062   .text.drawing:0000000000000510 .L0 
C:\Users\GTSAIN~1\AppData\Local\Temp\ccIslvt7.s:1064   .text.drawing:0000000000000514 .L0 
C:\Users\GTSAIN~1\AppData\Local\Temp\ccIslvt7.s:1065   .text.drawing:0000000000000514 .L0 
C:\Users\GTSAIN~1\AppData\Local\Temp\ccIslvt7.s:1068   .text.drawing:000000000000051a .L0 
C:\Users\GTSAIN~1\AppData\Local\Temp\ccIslvt7.s:1069   .text.drawing:000000000000051a .L0 
C:\Users\GTSAIN~1\AppData\Local\Temp\ccIslvt7.s:1071   .text.drawing:000000000000051e .L0 
C:\Users\GTSAIN~1\AppData\Local\Temp\ccIslvt7.s:1072   .text.drawing:000000000000051e .L0 
C:\Users\GTSAIN~1\AppData\Local\Temp\ccIslvt7.s:1074   .text.drawing:0000000000000522 .L0 
C:\Users\GTSAIN~1\AppData\Local\Temp\ccIslvt7.s:1075   .text.drawing:0000000000000522 .L0 
C:\Users\GTSAIN~1\AppData\Local\Temp\ccIslvt7.s:1077   .text.drawing:0000000000000524 .L0 
C:\Users\GTSAIN~1\AppData\Local\Temp\ccIslvt7.s:1078   .text.drawing:0000000000000524 .L0 
C:\Users\GTSAIN~1\AppData\Local\Temp\ccIslvt7.s:1080   .text.drawing:0000000000000526 .L0 
C:\Users\GTSAIN~1\AppData\Local\Temp\ccIslvt7.s:1081   .text.drawing:0000000000000526 .L0 
C:\Users\GTSAIN~1\AppData\Local\Temp\ccIslvt7.s:1083   .text.drawing:000000000000052a .L0 
C:\Users\GTSAIN~1\AppData\Local\Temp\ccIslvt7.s:1084   .text.drawing:000000000000052a .L0 
C:\Users\GTSAIN~1\AppData\Local\Temp\ccIslvt7.s:1086   .text.drawing:000000000000052e .L0 
C:\Users\GTSAIN~1\AppData\Local\Temp\ccIslvt7.s:1087   .text.drawing:000000000000052e .L0 
C:\Users\GTSAIN~1\AppData\Local\Temp\ccIslvt7.s:1091   .text.drawing:0000000000000534 .L0 
C:\Users\GTSAIN~1\AppData\Local\Temp\ccIslvt7.s:1092   .text.drawing:0000000000000534 .L0 
C:\Users\GTSAIN~1\AppData\Local\Temp\ccIslvt7.s:1094   .text.drawing:0000000000000538 .L0 
C:\Users\GTSAIN~1\AppData\Local\Temp\ccIslvt7.s:1095   .text.drawing:0000000000000538 .L0 
C:\Users\GTSAIN~1\AppData\Local\Temp\ccIslvt7.s:1098   .text.drawing:000000000000053e .L0 
C:\Users\GTSAIN~1\AppData\Local\Temp\ccIslvt7.s:1099   .text.drawing:000000000000053e .L0 
C:\Users\GTSAIN~1\AppData\Local\Temp\ccIslvt7.s:1101   .text.drawing:0000000000000542 .L0 
C:\Users\GTSAIN~1\AppData\Local\Temp\ccIslvt7.s:1102   .text.drawing:0000000000000542 .L0 
C:\Users\GTSAIN~1\AppData\Local\Temp\ccIslvt7.s:1104   .text.drawing:0000000000000546 .L0 
C:\Users\GTSAIN~1\AppData\Local\Temp\ccIslvt7.s:1105   .text.drawing:0000000000000546 .L0 
C:\Users\GTSAIN~1\AppData\Local\Temp\ccIslvt7.s:1107   .text.drawing:0000000000000548 .L0 
C:\Users\GTSAIN~1\AppData\Local\Temp\ccIslvt7.s:1108   .text.drawing:0000000000000548 .L0 
C:\Users\GTSAIN~1\AppData\Local\Temp\ccIslvt7.s:1110   .text.drawing:000000000000054a .L0 
C:\Users\GTSAIN~1\AppData\Local\Temp\ccIslvt7.s:1111   .text.drawing:000000000000054a .L0 
C:\Users\GTSAIN~1\AppData\Local\Temp\ccIslvt7.s:1113   .text.drawing:000000000000054e .L0 
C:\Users\GTSAIN~1\AppData\Local\Temp\ccIslvt7.s:1114   .text.drawing:000000000000054e .L0 
C:\Users\GTSAIN~1\AppData\Local\Temp\ccIslvt7.s:1116   .text.drawing:0000000000000552 .L0 
C:\Users\GTSAIN~1\AppData\Local\Temp\ccIslvt7.s:1117   .text.drawing:0000000000000552 .L0 
C:\Users\GTSAIN~1\AppData\Local\Temp\ccIslvt7.s:1121   .text.drawing:0000000000000558 .L0 
C:\Users\GTSAIN~1\AppData\Local\Temp\ccIslvt7.s:1122   .text.drawing:0000000000000558 .L0 
C:\Users\GTSAIN~1\AppData\Local\Temp\ccIslvt7.s:1124   .text.drawing:000000000000055c .L0 
C:\Users\GTSAIN~1\AppData\Local\Temp\ccIslvt7.s:1125   .text.drawing:000000000000055c .L0 
GAS LISTING C:\Users\GTSAIN~1\AppData\Local\Temp\ccIslvt7.s 			page 60


C:\Users\GTSAIN~1\AppData\Local\Temp\ccIslvt7.s:1128   .text.drawing:0000000000000562 .L0 
C:\Users\GTSAIN~1\AppData\Local\Temp\ccIslvt7.s:1129   .text.drawing:0000000000000562 .L0 
C:\Users\GTSAIN~1\AppData\Local\Temp\ccIslvt7.s:1131   .text.drawing:0000000000000566 .L0 
C:\Users\GTSAIN~1\AppData\Local\Temp\ccIslvt7.s:1132   .text.drawing:0000000000000566 .L0 
C:\Users\GTSAIN~1\AppData\Local\Temp\ccIslvt7.s:1134   .text.drawing:000000000000056a .L0 
C:\Users\GTSAIN~1\AppData\Local\Temp\ccIslvt7.s:1135   .text.drawing:000000000000056a .L0 
C:\Users\GTSAIN~1\AppData\Local\Temp\ccIslvt7.s:1137   .text.drawing:000000000000056c .L0 
C:\Users\GTSAIN~1\AppData\Local\Temp\ccIslvt7.s:1138   .text.drawing:000000000000056c .L0 
C:\Users\GTSAIN~1\AppData\Local\Temp\ccIslvt7.s:1140   .text.drawing:000000000000056e .L0 
C:\Users\GTSAIN~1\AppData\Local\Temp\ccIslvt7.s:1141   .text.drawing:000000000000056e .L0 
C:\Users\GTSAIN~1\AppData\Local\Temp\ccIslvt7.s:1143   .text.drawing:0000000000000572 .L0 
C:\Users\GTSAIN~1\AppData\Local\Temp\ccIslvt7.s:1144   .text.drawing:0000000000000572 .L0 
C:\Users\GTSAIN~1\AppData\Local\Temp\ccIslvt7.s:1146   .text.drawing:0000000000000576 .L0 
C:\Users\GTSAIN~1\AppData\Local\Temp\ccIslvt7.s:1147   .text.drawing:0000000000000576 .L0 
C:\Users\GTSAIN~1\AppData\Local\Temp\ccIslvt7.s:1151   .text.drawing:000000000000057c .L0 
C:\Users\GTSAIN~1\AppData\Local\Temp\ccIslvt7.s:1152   .text.drawing:000000000000057c .L0 
C:\Users\GTSAIN~1\AppData\Local\Temp\ccIslvt7.s:1154   .text.drawing:0000000000000580 .L0 
C:\Users\GTSAIN~1\AppData\Local\Temp\ccIslvt7.s:1155   .text.drawing:0000000000000580 .L0 
C:\Users\GTSAIN~1\AppData\Local\Temp\ccIslvt7.s:1158   .text.drawing:0000000000000586 .L0 
C:\Users\GTSAIN~1\AppData\Local\Temp\ccIslvt7.s:1159   .text.drawing:0000000000000586 .L0 
C:\Users\GTSAIN~1\AppData\Local\Temp\ccIslvt7.s:1161   .text.drawing:000000000000058a .L0 
C:\Users\GTSAIN~1\AppData\Local\Temp\ccIslvt7.s:1162   .text.drawing:000000000000058a .L0 
C:\Users\GTSAIN~1\AppData\Local\Temp\ccIslvt7.s:1164   .text.drawing:000000000000058e .L0 
C:\Users\GTSAIN~1\AppData\Local\Temp\ccIslvt7.s:1165   .text.drawing:000000000000058e .L0 
C:\Users\GTSAIN~1\AppData\Local\Temp\ccIslvt7.s:1167   .text.drawing:0000000000000590 .L0 
C:\Users\GTSAIN~1\AppData\Local\Temp\ccIslvt7.s:1168   .text.drawing:0000000000000590 .L0 
C:\Users\GTSAIN~1\AppData\Local\Temp\ccIslvt7.s:1170   .text.drawing:0000000000000592 .L0 
C:\Users\GTSAIN~1\AppData\Local\Temp\ccIslvt7.s:1171   .text.drawing:0000000000000592 .L0 
C:\Users\GTSAIN~1\AppData\Local\Temp\ccIslvt7.s:1173   .text.drawing:0000000000000596 .L0 
C:\Users\GTSAIN~1\AppData\Local\Temp\ccIslvt7.s:1174   .text.drawing:0000000000000596 .L0 
C:\Users\GTSAIN~1\AppData\Local\Temp\ccIslvt7.s:1176   .text.drawing:000000000000059a .L0 
C:\Users\GTSAIN~1\AppData\Local\Temp\ccIslvt7.s:1177   .text.drawing:000000000000059a .L0 
C:\Users\GTSAIN~1\AppData\Local\Temp\ccIslvt7.s:1183   .text.drawing:00000000000005a2 .L0 
C:\Users\GTSAIN~1\AppData\Local\Temp\ccIslvt7.s:1184   .text.drawing:00000000000005a2 .L0 
C:\Users\GTSAIN~1\AppData\Local\Temp\ccIslvt7.s:1186   .text.drawing:00000000000005a4 .L0 
C:\Users\GTSAIN~1\AppData\Local\Temp\ccIslvt7.s:1187   .text.drawing:00000000000005a4 .L0 
C:\Users\GTSAIN~1\AppData\Local\Temp\ccIslvt7.s:1189   .text.drawing:00000000000005a8 .L0 
C:\Users\GTSAIN~1\AppData\Local\Temp\ccIslvt7.s:1191   .text.drawing:00000000000005aa .L0 
C:\Users\GTSAIN~1\AppData\Local\Temp\ccIslvt7.s:1192   .text.drawing:00000000000005aa .L0 
C:\Users\GTSAIN~1\AppData\Local\Temp\ccIslvt7.s:1194   .text.drawing:00000000000005ae .L0 
C:\Users\GTSAIN~1\AppData\Local\Temp\ccIslvt7.s:1195   .text.drawing:00000000000005ae .L0 
C:\Users\GTSAIN~1\AppData\Local\Temp\ccIslvt7.s:1197   .text.drawing:00000000000005b2 .L0 
C:\Users\GTSAIN~1\AppData\Local\Temp\ccIslvt7.s:1201   .text.drawing:00000000000005b4 .L0 
C:\Users\GTSAIN~1\AppData\Local\Temp\ccIslvt7.s:1202   .text.drawing:00000000000005b4 .L0 
C:\Users\GTSAIN~1\AppData\Local\Temp\ccIslvt7.s:1205   .text.drawing:00000000000005b8 .L0 
C:\Users\GTSAIN~1\AppData\Local\Temp\ccIslvt7.s:1206   .text.drawing:00000000000005b8 .L0 
C:\Users\GTSAIN~1\AppData\Local\Temp\ccIslvt7.s:1208   .text.drawing:00000000000005bc .L0 
C:\Users\GTSAIN~1\AppData\Local\Temp\ccIslvt7.s:1209   .text.drawing:00000000000005bc .L0 
C:\Users\GTSAIN~1\AppData\Local\Temp\ccIslvt7.s:1211   .text.drawing:00000000000005c0 .L0 
C:\Users\GTSAIN~1\AppData\Local\Temp\ccIslvt7.s:1212   .text.drawing:00000000000005c0 .L0 
C:\Users\GTSAIN~1\AppData\Local\Temp\ccIslvt7.s:1214   .text.drawing:00000000000005c4 .L0 
C:\Users\GTSAIN~1\AppData\Local\Temp\ccIslvt7.s:1215   .text.drawing:00000000000005c4 .L0 
C:\Users\GTSAIN~1\AppData\Local\Temp\ccIslvt7.s:1217   .text.drawing:00000000000005c6 .L0 
C:\Users\GTSAIN~1\AppData\Local\Temp\ccIslvt7.s:1218   .text.drawing:00000000000005c6 .L0 
C:\Users\GTSAIN~1\AppData\Local\Temp\ccIslvt7.s:1220   .text.drawing:00000000000005c8 .L0 
C:\Users\GTSAIN~1\AppData\Local\Temp\ccIslvt7.s:1223   .text.drawing:00000000000005ca .L0 
C:\Users\GTSAIN~1\AppData\Local\Temp\ccIslvt7.s:1226   .text.drawing:00000000000005d0 .L0 
GAS LISTING C:\Users\GTSAIN~1\AppData\Local\Temp\ccIslvt7.s 			page 61


C:\Users\GTSAIN~1\AppData\Local\Temp\ccIslvt7.s:1228   .text.drawing:00000000000005d4 .L0 
C:\Users\GTSAIN~1\AppData\Local\Temp\ccIslvt7.s:1232   .text.drawing:00000000000005da .L0 
C:\Users\GTSAIN~1\AppData\Local\Temp\ccIslvt7.s:1233   .text.drawing:00000000000005da .L0 
C:\Users\GTSAIN~1\AppData\Local\Temp\ccIslvt7.s:1235   .text.drawing:00000000000005de .L0 
C:\Users\GTSAIN~1\AppData\Local\Temp\ccIslvt7.s:1239   .text.drawing:00000000000005e4 .L0 
C:\Users\GTSAIN~1\AppData\Local\Temp\ccIslvt7.s:1240   .text.drawing:00000000000005e4 .L0 
C:\Users\GTSAIN~1\AppData\Local\Temp\ccIslvt7.s:1244   .text.drawing:00000000000005ea .L0 
C:\Users\GTSAIN~1\AppData\Local\Temp\ccIslvt7.s:1250   .text.drawing:00000000000005f6 .L0 
C:\Users\GTSAIN~1\AppData\Local\Temp\ccIslvt7.s:1251   .text.drawing:00000000000005f6 .L0 
C:\Users\GTSAIN~1\AppData\Local\Temp\ccIslvt7.s:1253   .text.drawing:00000000000005fa .L0 
C:\Users\GTSAIN~1\AppData\Local\Temp\ccIslvt7.s:1258   .text.drawing:0000000000000600 .L0 
C:\Users\GTSAIN~1\AppData\Local\Temp\ccIslvt7.s:1261   .text.drawing:0000000000000606 .L0 
C:\Users\GTSAIN~1\AppData\Local\Temp\ccIslvt7.s:1263   .text.drawing:000000000000060a .L0 
C:\Users\GTSAIN~1\AppData\Local\Temp\ccIslvt7.s:1267   .text.drawing:0000000000000610 .L0 
C:\Users\GTSAIN~1\AppData\Local\Temp\ccIslvt7.s:1268   .text.drawing:0000000000000610 .L0 
C:\Users\GTSAIN~1\AppData\Local\Temp\ccIslvt7.s:1270   .text.drawing:0000000000000614 .L0 
C:\Users\GTSAIN~1\AppData\Local\Temp\ccIslvt7.s:1274   .text.drawing:000000000000061a .L0 
C:\Users\GTSAIN~1\AppData\Local\Temp\ccIslvt7.s:1275   .text.drawing:000000000000061a .L0 
C:\Users\GTSAIN~1\AppData\Local\Temp\ccIslvt7.s:1279   .text.drawing:0000000000000620 .L0 
C:\Users\GTSAIN~1\AppData\Local\Temp\ccIslvt7.s:1285   .text.drawing:000000000000062c .L0 
C:\Users\GTSAIN~1\AppData\Local\Temp\ccIslvt7.s:1286   .text.drawing:000000000000062c .L0 
C:\Users\GTSAIN~1\AppData\Local\Temp\ccIslvt7.s:1288   .text.drawing:0000000000000630 .L0 
C:\Users\GTSAIN~1\AppData\Local\Temp\ccIslvt7.s:1293   .text.drawing:0000000000000636 .L0 
C:\Users\GTSAIN~1\AppData\Local\Temp\ccIslvt7.s:1296   .text.drawing:000000000000063c .L0 
C:\Users\GTSAIN~1\AppData\Local\Temp\ccIslvt7.s:1298   .text.drawing:0000000000000640 .L0 
C:\Users\GTSAIN~1\AppData\Local\Temp\ccIslvt7.s:1302   .text.drawing:0000000000000646 .L0 
C:\Users\GTSAIN~1\AppData\Local\Temp\ccIslvt7.s:1303   .text.drawing:0000000000000646 .L0 
C:\Users\GTSAIN~1\AppData\Local\Temp\ccIslvt7.s:1305   .text.drawing:000000000000064a .L0 
C:\Users\GTSAIN~1\AppData\Local\Temp\ccIslvt7.s:1309   .text.drawing:0000000000000650 .L0 
C:\Users\GTSAIN~1\AppData\Local\Temp\ccIslvt7.s:1310   .text.drawing:0000000000000650 .L0 
C:\Users\GTSAIN~1\AppData\Local\Temp\ccIslvt7.s:1314   .text.drawing:0000000000000656 .L0 
C:\Users\GTSAIN~1\AppData\Local\Temp\ccIslvt7.s:1320   .text.drawing:0000000000000662 .L0 
C:\Users\GTSAIN~1\AppData\Local\Temp\ccIslvt7.s:1321   .text.drawing:0000000000000662 .L0 
C:\Users\GTSAIN~1\AppData\Local\Temp\ccIslvt7.s:1323   .text.drawing:0000000000000666 .L0 
C:\Users\GTSAIN~1\AppData\Local\Temp\ccIslvt7.s:1328   .text.drawing:000000000000066c .L0 
C:\Users\GTSAIN~1\AppData\Local\Temp\ccIslvt7.s:1331   .text.drawing:0000000000000672 .L0 
C:\Users\GTSAIN~1\AppData\Local\Temp\ccIslvt7.s:1333   .text.drawing:0000000000000676 .L0 
C:\Users\GTSAIN~1\AppData\Local\Temp\ccIslvt7.s:1337   .text.drawing:000000000000067c .L0 
C:\Users\GTSAIN~1\AppData\Local\Temp\ccIslvt7.s:1338   .text.drawing:000000000000067c .L0 
C:\Users\GTSAIN~1\AppData\Local\Temp\ccIslvt7.s:1340   .text.drawing:0000000000000680 .L0 
C:\Users\GTSAIN~1\AppData\Local\Temp\ccIslvt7.s:1344   .text.drawing:0000000000000686 .L0 
C:\Users\GTSAIN~1\AppData\Local\Temp\ccIslvt7.s:1345   .text.drawing:0000000000000686 .L0 
C:\Users\GTSAIN~1\AppData\Local\Temp\ccIslvt7.s:1349   .text.drawing:000000000000068c .L0 
C:\Users\GTSAIN~1\AppData\Local\Temp\ccIslvt7.s:1355   .text.drawing:0000000000000698 .L0 
C:\Users\GTSAIN~1\AppData\Local\Temp\ccIslvt7.s:1356   .text.drawing:0000000000000698 .L0 
C:\Users\GTSAIN~1\AppData\Local\Temp\ccIslvt7.s:1358   .text.drawing:000000000000069c .L0 
C:\Users\GTSAIN~1\AppData\Local\Temp\ccIslvt7.s:1363   .text.drawing:00000000000006a2 .L0 
C:\Users\GTSAIN~1\AppData\Local\Temp\ccIslvt7.s:1367   .text.drawing:00000000000006a8 .L0 
C:\Users\GTSAIN~1\AppData\Local\Temp\ccIslvt7.s:1369   .text.drawing:00000000000006ac .L0 
C:\Users\GTSAIN~1\AppData\Local\Temp\ccIslvt7.s:1373   .text.drawing:00000000000006b2 .L0 
C:\Users\GTSAIN~1\AppData\Local\Temp\ccIslvt7.s:1374   .text.drawing:00000000000006b2 .L0 
C:\Users\GTSAIN~1\AppData\Local\Temp\ccIslvt7.s:1376   .text.drawing:00000000000006b4 .L0 
C:\Users\GTSAIN~1\AppData\Local\Temp\ccIslvt7.s:1380   .text.drawing:00000000000006ba .L0 
C:\Users\GTSAIN~1\AppData\Local\Temp\ccIslvt7.s:1381   .text.drawing:00000000000006ba .L0 
C:\Users\GTSAIN~1\AppData\Local\Temp\ccIslvt7.s:1385   .text.drawing:00000000000006c0 .L0 
C:\Users\GTSAIN~1\AppData\Local\Temp\ccIslvt7.s:1391   .text.drawing:00000000000006cc .L0 
C:\Users\GTSAIN~1\AppData\Local\Temp\ccIslvt7.s:1392   .text.drawing:00000000000006cc .L0 
GAS LISTING C:\Users\GTSAIN~1\AppData\Local\Temp\ccIslvt7.s 			page 62


C:\Users\GTSAIN~1\AppData\Local\Temp\ccIslvt7.s:1394   .text.drawing:00000000000006ce .L0 
C:\Users\GTSAIN~1\AppData\Local\Temp\ccIslvt7.s:1399   .text.drawing:00000000000006d4 .L0 
C:\Users\GTSAIN~1\AppData\Local\Temp\ccIslvt7.s:1402   .text.drawing:00000000000006da .L0 
C:\Users\GTSAIN~1\AppData\Local\Temp\ccIslvt7.s:1404   .text.drawing:00000000000006de .L0 
C:\Users\GTSAIN~1\AppData\Local\Temp\ccIslvt7.s:1408   .text.drawing:00000000000006e4 .L0 
C:\Users\GTSAIN~1\AppData\Local\Temp\ccIslvt7.s:1409   .text.drawing:00000000000006e4 .L0 
C:\Users\GTSAIN~1\AppData\Local\Temp\ccIslvt7.s:1411   .text.drawing:00000000000006e8 .L0 
C:\Users\GTSAIN~1\AppData\Local\Temp\ccIslvt7.s:1415   .text.drawing:00000000000006ee .L0 
C:\Users\GTSAIN~1\AppData\Local\Temp\ccIslvt7.s:1416   .text.drawing:00000000000006ee .L0 
C:\Users\GTSAIN~1\AppData\Local\Temp\ccIslvt7.s:1420   .text.drawing:00000000000006f4 .L0 
C:\Users\GTSAIN~1\AppData\Local\Temp\ccIslvt7.s:1426   .text.drawing:0000000000000700 .L0 
C:\Users\GTSAIN~1\AppData\Local\Temp\ccIslvt7.s:1427   .text.drawing:0000000000000700 .L0 
C:\Users\GTSAIN~1\AppData\Local\Temp\ccIslvt7.s:1429   .text.drawing:0000000000000704 .L0 
C:\Users\GTSAIN~1\AppData\Local\Temp\ccIslvt7.s:1434   .text.drawing:000000000000070a .L0 
C:\Users\GTSAIN~1\AppData\Local\Temp\ccIslvt7.s:1437   .text.drawing:0000000000000710 .L0 
C:\Users\GTSAIN~1\AppData\Local\Temp\ccIslvt7.s:1439   .text.drawing:0000000000000714 .L0 
C:\Users\GTSAIN~1\AppData\Local\Temp\ccIslvt7.s:1443   .text.drawing:000000000000071a .L0 
C:\Users\GTSAIN~1\AppData\Local\Temp\ccIslvt7.s:1444   .text.drawing:000000000000071a .L0 
C:\Users\GTSAIN~1\AppData\Local\Temp\ccIslvt7.s:1446   .text.drawing:000000000000071e .L0 
C:\Users\GTSAIN~1\AppData\Local\Temp\ccIslvt7.s:1450   .text.drawing:0000000000000724 .L0 
C:\Users\GTSAIN~1\AppData\Local\Temp\ccIslvt7.s:1451   .text.drawing:0000000000000724 .L0 
C:\Users\GTSAIN~1\AppData\Local\Temp\ccIslvt7.s:1455   .text.drawing:000000000000072a .L0 
C:\Users\GTSAIN~1\AppData\Local\Temp\ccIslvt7.s:1461   .text.drawing:0000000000000736 .L0 
C:\Users\GTSAIN~1\AppData\Local\Temp\ccIslvt7.s:1462   .text.drawing:0000000000000736 .L0 
C:\Users\GTSAIN~1\AppData\Local\Temp\ccIslvt7.s:1464   .text.drawing:000000000000073a .L0 
C:\Users\GTSAIN~1\AppData\Local\Temp\ccIslvt7.s:1469   .text.drawing:0000000000000740 .L0 
C:\Users\GTSAIN~1\AppData\Local\Temp\ccIslvt7.s:1472   .text.drawing:0000000000000746 .L0 
C:\Users\GTSAIN~1\AppData\Local\Temp\ccIslvt7.s:1474   .text.drawing:000000000000074a .L0 
C:\Users\GTSAIN~1\AppData\Local\Temp\ccIslvt7.s:1478   .text.drawing:0000000000000750 .L0 
C:\Users\GTSAIN~1\AppData\Local\Temp\ccIslvt7.s:1479   .text.drawing:0000000000000750 .L0 
C:\Users\GTSAIN~1\AppData\Local\Temp\ccIslvt7.s:1481   .text.drawing:0000000000000754 .L0 
C:\Users\GTSAIN~1\AppData\Local\Temp\ccIslvt7.s:1485   .text.drawing:000000000000075a .L0 
C:\Users\GTSAIN~1\AppData\Local\Temp\ccIslvt7.s:1486   .text.drawing:000000000000075a .L0 
C:\Users\GTSAIN~1\AppData\Local\Temp\ccIslvt7.s:1490   .text.drawing:0000000000000760 .L0 
C:\Users\GTSAIN~1\AppData\Local\Temp\ccIslvt7.s:1496   .text.drawing:000000000000076c .L0 
C:\Users\GTSAIN~1\AppData\Local\Temp\ccIslvt7.s:1497   .text.drawing:000000000000076c .L0 
C:\Users\GTSAIN~1\AppData\Local\Temp\ccIslvt7.s:1499   .text.drawing:000000000000076e .L0 
C:\Users\GTSAIN~1\AppData\Local\Temp\ccIslvt7.s:1504   .text.drawing:0000000000000774 .L0 
C:\Users\GTSAIN~1\AppData\Local\Temp\ccIslvt7.s:1507   .text.drawing:000000000000077a .L0 
C:\Users\GTSAIN~1\AppData\Local\Temp\ccIslvt7.s:1509   .text.drawing:000000000000077e .L0 
C:\Users\GTSAIN~1\AppData\Local\Temp\ccIslvt7.s:1513   .text.drawing:0000000000000784 .L0 
C:\Users\GTSAIN~1\AppData\Local\Temp\ccIslvt7.s:1514   .text.drawing:0000000000000784 .L0 
C:\Users\GTSAIN~1\AppData\Local\Temp\ccIslvt7.s:1516   .text.drawing:0000000000000786 .L0 
C:\Users\GTSAIN~1\AppData\Local\Temp\ccIslvt7.s:1520   .text.drawing:000000000000078c .L0 
C:\Users\GTSAIN~1\AppData\Local\Temp\ccIslvt7.s:1521   .text.drawing:000000000000078c .L0 
C:\Users\GTSAIN~1\AppData\Local\Temp\ccIslvt7.s:1525   .text.drawing:0000000000000792 .L0 
C:\Users\GTSAIN~1\AppData\Local\Temp\ccIslvt7.s:1531   .text.drawing:000000000000079e .L0 
C:\Users\GTSAIN~1\AppData\Local\Temp\ccIslvt7.s:1532   .text.drawing:000000000000079e .L0 
C:\Users\GTSAIN~1\AppData\Local\Temp\ccIslvt7.s:1534   .text.drawing:00000000000007a0 .L0 
C:\Users\GTSAIN~1\AppData\Local\Temp\ccIslvt7.s:1539   .text.drawing:00000000000007a6 .L0 
C:\Users\GTSAIN~1\AppData\Local\Temp\ccIslvt7.s:1542   .text.drawing:00000000000007ac .L0 
C:\Users\GTSAIN~1\AppData\Local\Temp\ccIslvt7.s:1544   .text.drawing:00000000000007b0 .L0 
C:\Users\GTSAIN~1\AppData\Local\Temp\ccIslvt7.s:1548   .text.drawing:00000000000007b6 .L0 
C:\Users\GTSAIN~1\AppData\Local\Temp\ccIslvt7.s:1549   .text.drawing:00000000000007b6 .L0 
C:\Users\GTSAIN~1\AppData\Local\Temp\ccIslvt7.s:1551   .text.drawing:00000000000007ba .L0 
C:\Users\GTSAIN~1\AppData\Local\Temp\ccIslvt7.s:1555   .text.drawing:00000000000007c0 .L0 
C:\Users\GTSAIN~1\AppData\Local\Temp\ccIslvt7.s:1556   .text.drawing:00000000000007c0 .L0 
GAS LISTING C:\Users\GTSAIN~1\AppData\Local\Temp\ccIslvt7.s 			page 63


C:\Users\GTSAIN~1\AppData\Local\Temp\ccIslvt7.s:1560   .text.drawing:00000000000007c6 .L0 
C:\Users\GTSAIN~1\AppData\Local\Temp\ccIslvt7.s:1566   .text.drawing:00000000000007d2 .L0 
C:\Users\GTSAIN~1\AppData\Local\Temp\ccIslvt7.s:1567   .text.drawing:00000000000007d2 .L0 
C:\Users\GTSAIN~1\AppData\Local\Temp\ccIslvt7.s:1569   .text.drawing:00000000000007d4 .L0 
C:\Users\GTSAIN~1\AppData\Local\Temp\ccIslvt7.s:1573   .text.drawing:00000000000007da .L0 
C:\Users\GTSAIN~1\AppData\Local\Temp\ccIslvt7.s:1576   .text.drawing:00000000000007e0 .L0 
C:\Users\GTSAIN~1\AppData\Local\Temp\ccIslvt7.s:1578   .text.drawing:00000000000007e4 .L0 
C:\Users\GTSAIN~1\AppData\Local\Temp\ccIslvt7.s:1583   .text.drawing:00000000000007ec .L0 
C:\Users\GTSAIN~1\AppData\Local\Temp\ccIslvt7.s:1586   .text.drawing:00000000000007f2 .L0 
C:\Users\GTSAIN~1\AppData\Local\Temp\ccIslvt7.s:1588   .text.drawing:00000000000007f6 .L0 
C:\Users\GTSAIN~1\AppData\Local\Temp\ccIslvt7.s:1593   .text.drawing:00000000000007fe .L0 
C:\Users\GTSAIN~1\AppData\Local\Temp\ccIslvt7.s:1596   .text.drawing:0000000000000804 .L0 
C:\Users\GTSAIN~1\AppData\Local\Temp\ccIslvt7.s:1598   .text.drawing:0000000000000808 .L0 
C:\Users\GTSAIN~1\AppData\Local\Temp\ccIslvt7.s:1604   .text.drawing:0000000000000810 .L0 
C:\Users\GTSAIN~1\AppData\Local\Temp\ccIslvt7.s:1607   .text.drawing:0000000000000816 .L0 
C:\Users\GTSAIN~1\AppData\Local\Temp\ccIslvt7.s:1609   .text.drawing:000000000000081a .L0 
C:\Users\GTSAIN~1\AppData\Local\Temp\ccIslvt7.s:1615   .text.drawing:0000000000000822 .L0 
C:\Users\GTSAIN~1\AppData\Local\Temp\ccIslvt7.s:1618   .text.drawing:0000000000000828 .L0 
C:\Users\GTSAIN~1\AppData\Local\Temp\ccIslvt7.s:1620   .text.drawing:000000000000082c .L0 
C:\Users\GTSAIN~1\AppData\Local\Temp\ccIslvt7.s:1625   .text.drawing:0000000000000834 .L0 
C:\Users\GTSAIN~1\AppData\Local\Temp\ccIslvt7.s:1628   .text.drawing:000000000000083a .L0 
C:\Users\GTSAIN~1\AppData\Local\Temp\ccIslvt7.s:1630   .text.drawing:000000000000083e .L0 
C:\Users\GTSAIN~1\AppData\Local\Temp\ccIslvt7.s:1635   .text.drawing:0000000000000846 .L0 
C:\Users\GTSAIN~1\AppData\Local\Temp\ccIslvt7.s:1638   .text.drawing:000000000000084c .L0 
C:\Users\GTSAIN~1\AppData\Local\Temp\ccIslvt7.s:1640   .text.drawing:0000000000000850 .L0 
C:\Users\GTSAIN~1\AppData\Local\Temp\ccIslvt7.s:1645   .text.drawing:0000000000000858 .L0 
C:\Users\GTSAIN~1\AppData\Local\Temp\ccIslvt7.s:1648   .text.drawing:000000000000085e .L0 
C:\Users\GTSAIN~1\AppData\Local\Temp\ccIslvt7.s:1650   .text.drawing:0000000000000862 .L0 
C:\Users\GTSAIN~1\AppData\Local\Temp\ccIslvt7.s:1655   .text.drawing:000000000000086a .L0 
C:\Users\GTSAIN~1\AppData\Local\Temp\ccIslvt7.s:1658   .text.drawing:0000000000000870 .L0 
C:\Users\GTSAIN~1\AppData\Local\Temp\ccIslvt7.s:1660   .text.drawing:0000000000000874 .L0 
C:\Users\GTSAIN~1\AppData\Local\Temp\ccIslvt7.s:1665   .text.drawing:000000000000087c .L0 
C:\Users\GTSAIN~1\AppData\Local\Temp\ccIslvt7.s:1668   .text.drawing:0000000000000882 .L0 
C:\Users\GTSAIN~1\AppData\Local\Temp\ccIslvt7.s:1670   .text.drawing:0000000000000886 .L0 
C:\Users\GTSAIN~1\AppData\Local\Temp\ccIslvt7.s:1675   .text.drawing:000000000000088e .L0 
C:\Users\GTSAIN~1\AppData\Local\Temp\ccIslvt7.s:1676   .text.drawing:000000000000088e .L0 
C:\Users\GTSAIN~1\AppData\Local\Temp\ccIslvt7.s:1680   .text.drawing:0000000000000896 .L0 
C:\Users\GTSAIN~1\AppData\Local\Temp\ccIslvt7.s:1717   .text.drawing:00000000000008d4 .L0 
C:\Users\GTSAIN~1\AppData\Local\Temp\ccIslvt7.s:1718   .text.drawing:00000000000008d4 .L0 
C:\Users\GTSAIN~1\AppData\Local\Temp\ccIslvt7.s:1722   .text.drawing:00000000000008dc .L0 
C:\Users\GTSAIN~1\AppData\Local\Temp\ccIslvt7.s:1725   .text.drawing:00000000000008de .L0 
C:\Users\GTSAIN~1\AppData\Local\Temp\ccIslvt7.s:1726   .text.drawing:00000000000008de .L0 
C:\Users\GTSAIN~1\AppData\Local\Temp\ccIslvt7.s:1730   .text.drawing:00000000000008e8 .L0 
C:\Users\GTSAIN~1\AppData\Local\Temp\ccIslvt7.s:1733   .text.drawing:00000000000008ea .L0 
C:\Users\GTSAIN~1\AppData\Local\Temp\ccIslvt7.s:1734   .text.drawing:00000000000008ea .L0 
C:\Users\GTSAIN~1\AppData\Local\Temp\ccIslvt7.s:1738   .text.drawing:00000000000008f4 .L0 
C:\Users\GTSAIN~1\AppData\Local\Temp\ccIslvt7.s:1741   .text.drawing:00000000000008f6 .L0 
C:\Users\GTSAIN~1\AppData\Local\Temp\ccIslvt7.s:1742   .text.drawing:00000000000008f6 .L0 
C:\Users\GTSAIN~1\AppData\Local\Temp\ccIslvt7.s:1744   .text.drawing:00000000000008fa .L0 
C:\Users\GTSAIN~1\AppData\Local\Temp\ccIslvt7.s:1747   .text.drawing:00000000000008fc .L0 
C:\Users\GTSAIN~1\AppData\Local\Temp\ccIslvt7.s:1748   .text.drawing:00000000000008fc .L0 
C:\Users\GTSAIN~1\AppData\Local\Temp\ccIslvt7.s:1751   .text.drawing:0000000000000902 .L0 
C:\Users\GTSAIN~1\AppData\Local\Temp\ccIslvt7.s:1754   .text.drawing:0000000000000904 .L0 
C:\Users\GTSAIN~1\AppData\Local\Temp\ccIslvt7.s:1755   .text.drawing:0000000000000904 .L0 
C:\Users\GTSAIN~1\AppData\Local\Temp\ccIslvt7.s:1758   .text.drawing:000000000000090c .L0 
C:\Users\GTSAIN~1\AppData\Local\Temp\ccIslvt7.s:1761   .text.drawing:000000000000090e .L0 
C:\Users\GTSAIN~1\AppData\Local\Temp\ccIslvt7.s:1762   .text.drawing:000000000000090e .L0 
GAS LISTING C:\Users\GTSAIN~1\AppData\Local\Temp\ccIslvt7.s 			page 64


C:\Users\GTSAIN~1\AppData\Local\Temp\ccIslvt7.s:1766   .text.drawing:0000000000000916 .L0 
C:\Users\GTSAIN~1\AppData\Local\Temp\ccIslvt7.s:1769   .text.drawing:0000000000000918 .L0 
C:\Users\GTSAIN~1\AppData\Local\Temp\ccIslvt7.s:1770   .text.drawing:0000000000000918 .L0 
C:\Users\GTSAIN~1\AppData\Local\Temp\ccIslvt7.s:1774   .text.drawing:0000000000000922 .L0 
C:\Users\GTSAIN~1\AppData\Local\Temp\ccIslvt7.s:1775   .text.drawing:0000000000000924 .L0 
C:\Users\GTSAIN~1\AppData\Local\Temp\ccIslvt7.s:1782   .text.startup.main:0000000000000000 main
C:\Users\GTSAIN~1\AppData\Local\Temp\ccIslvt7.s:1785   .text.startup.main:0000000000000000 .L0 
C:\Users\GTSAIN~1\AppData\Local\Temp\ccIslvt7.s:1786   .text.startup.main:0000000000000000 .L0 
C:\Users\GTSAIN~1\AppData\Local\Temp\ccIslvt7.s:1788   .text.startup.main:0000000000000000 .L0 
C:\Users\GTSAIN~1\AppData\Local\Temp\ccIslvt7.s:1789   .text.startup.main:0000000000000000 .L0 
C:\Users\GTSAIN~1\AppData\Local\Temp\ccIslvt7.s:1790   .text.startup.main:0000000000000000 .L0 
C:\Users\GTSAIN~1\AppData\Local\Temp\ccIslvt7.s:1792   .text.startup.main:0000000000000004 .L0 
C:\Users\GTSAIN~1\AppData\Local\Temp\ccIslvt7.s:1794   .text.startup.main:0000000000000006 .L0 
C:\Users\GTSAIN~1\AppData\Local\Temp\ccIslvt7.s:1796   .text.startup.main:0000000000000006 .L0 
C:\Users\GTSAIN~1\AppData\Local\Temp\ccIslvt7.s:1798   .text.startup.main:000000000000000a .L0 
C:\Users\GTSAIN~1\AppData\Local\Temp\ccIslvt7.s:1802   .text.startup.main:0000000000000012 .L0 
C:\Users\GTSAIN~1\AppData\Local\Temp\ccIslvt7.s:1803   .text.startup.main:0000000000000012 .L0 
C:\Users\GTSAIN~1\AppData\Local\Temp\ccIslvt7.s:1804   .text.startup.main:0000000000000012 .L0 
C:\Users\GTSAIN~1\AppData\Local\Temp\ccIslvt7.s:1805   .text.startup.main:0000000000000012 .L0 
C:\Users\GTSAIN~1\AppData\Local\Temp\ccIslvt7.s:1807   .text.startup.main:0000000000000012 .L0 
C:\Users\GTSAIN~1\AppData\Local\Temp\ccIslvt7.s:1823   .text.startup.main:0000000000000034 .L0 
C:\Users\GTSAIN~1\AppData\Local\Temp\ccIslvt7.s:1824   .text.startup.main:0000000000000034 .L0 
C:\Users\GTSAIN~1\AppData\Local\Temp\ccIslvt7.s:1825   .text.startup.main:0000000000000034 .L0 
C:\Users\GTSAIN~1\AppData\Local\Temp\ccIslvt7.s:1826   .text.startup.main:0000000000000034 .L0 
C:\Users\GTSAIN~1\AppData\Local\Temp\ccIslvt7.s:1829   .text.startup.main:0000000000000038 .L0 
C:\Users\GTSAIN~1\AppData\Local\Temp\ccIslvt7.s:1831   .text.startup.main:000000000000003a .L0 
C:\Users\GTSAIN~1\AppData\Local\Temp\ccIslvt7.s:1833   .text.startup.main:000000000000003c .L0 
C:\Users\GTSAIN~1\AppData\Local\Temp\ccIslvt7.s:1835   .text.startup.main:000000000000003e .L0 
C:\Users\GTSAIN~1\AppData\Local\Temp\ccIslvt7.s:1836   .text.startup.main:000000000000003e .L0 
C:\Users\GTSAIN~1\AppData\Local\Temp\ccIslvt7.s:1838   .text.startup.main:0000000000000040 .L0 
C:\Users\GTSAIN~1\AppData\Local\Temp\ccIslvt7.s:1839   .text.startup.main:0000000000000040 .L0 
C:\Users\GTSAIN~1\AppData\Local\Temp\ccIslvt7.s:1841   .text.startup.main:0000000000000042 .L0 
C:\Users\GTSAIN~1\AppData\Local\Temp\ccIslvt7.s:1843   .text.startup.main:0000000000000044 .L0 
C:\Users\GTSAIN~1\AppData\Local\Temp\ccIslvt7.s:1845   .text.startup.main:0000000000000046 .L0 
C:\Users\GTSAIN~1\AppData\Local\Temp\ccIslvt7.s:1846   .text.startup.main:0000000000000046 .L0 
C:\Users\GTSAIN~1\AppData\Local\Temp\ccIslvt7.s:1848   .text.startup.main:0000000000000048 .L0 
C:\Users\GTSAIN~1\AppData\Local\Temp\ccIslvt7.s:1849   .text.startup.main:0000000000000048 .L0 
C:\Users\GTSAIN~1\AppData\Local\Temp\ccIslvt7.s:1852   .text.startup.main:0000000000000050 .L0 
C:\Users\GTSAIN~1\AppData\Local\Temp\ccIslvt7.s:1855   .text.startup.main:0000000000000058 .L0 
C:\Users\GTSAIN~1\AppData\Local\Temp\ccIslvt7.s:1858   .text.startup.main:0000000000000060 .L0 
C:\Users\GTSAIN~1\AppData\Local\Temp\ccIslvt7.s:1861   .text.startup.main:0000000000000068 .L0 
C:\Users\GTSAIN~1\AppData\Local\Temp\ccIslvt7.s:1865   .text.startup.main:0000000000000072 .L0 
C:\Users\GTSAIN~1\AppData\Local\Temp\ccIslvt7.s:1868   .text.startup.main:000000000000007a .L0 
C:\Users\GTSAIN~1\AppData\Local\Temp\ccIslvt7.s:1877   .text.startup.main:000000000000008e .L0 
C:\Users\GTSAIN~1\AppData\Local\Temp\ccIslvt7.s:1878   .text.startup.main:000000000000008e .L0 
C:\Users\GTSAIN~1\AppData\Local\Temp\ccIslvt7.s:1879   .text.startup.main:000000000000008e .L0 
C:\Users\GTSAIN~1\AppData\Local\Temp\ccIslvt7.s:1882   .text.startup.main:0000000000000096 .L0 
C:\Users\GTSAIN~1\AppData\Local\Temp\ccIslvt7.s:1883   .text.startup.main:0000000000000096 .L0 
C:\Users\GTSAIN~1\AppData\Local\Temp\ccIslvt7.s:1886   .text.startup.main:000000000000009e .L0 
C:\Users\GTSAIN~1\AppData\Local\Temp\ccIslvt7.s:1887   .text.startup.main:000000000000009e .L0 
C:\Users\GTSAIN~1\AppData\Local\Temp\ccIslvt7.s:1889   .text.startup.main:00000000000000a0 .L0 
C:\Users\GTSAIN~1\AppData\Local\Temp\ccIslvt7.s:1894   .text.startup.main:00000000000000b0 .L0 
C:\Users\GTSAIN~1\AppData\Local\Temp\ccIslvt7.s:1895   .text.startup.main:00000000000000b0 .L0 
C:\Users\GTSAIN~1\AppData\Local\Temp\ccIslvt7.s:1896   .text.startup.main:00000000000000b0 .L0 
C:\Users\GTSAIN~1\AppData\Local\Temp\ccIslvt7.s:1897   .text.startup.main:00000000000000b0 .L0 
C:\Users\GTSAIN~1\AppData\Local\Temp\ccIslvt7.s:1900   .text.startup.main:00000000000000b8 .L0 
C:\Users\GTSAIN~1\AppData\Local\Temp\ccIslvt7.s:1901   .text.startup.main:00000000000000b8 .L0 
GAS LISTING C:\Users\GTSAIN~1\AppData\Local\Temp\ccIslvt7.s 			page 65


C:\Users\GTSAIN~1\AppData\Local\Temp\ccIslvt7.s:1903   .text.startup.main:00000000000000bc .L0 
C:\Users\GTSAIN~1\AppData\Local\Temp\ccIslvt7.s:1906   .text.startup.main:00000000000000be .L0 
C:\Users\GTSAIN~1\AppData\Local\Temp\ccIslvt7.s:1909   .text.startup.main:00000000000000c2 .L0 
C:\Users\GTSAIN~1\AppData\Local\Temp\ccIslvt7.s:1912   .text.startup.main:00000000000000c4 .L0 
C:\Users\GTSAIN~1\AppData\Local\Temp\ccIslvt7.s:1914   .text.startup.main:00000000000000c8 .L0 
C:\Users\GTSAIN~1\AppData\Local\Temp\ccIslvt7.s:1916   .text.startup.main:00000000000000cc .L0 
C:\Users\GTSAIN~1\AppData\Local\Temp\ccIslvt7.s:1920   .text.startup.main:00000000000000d6 .L0 
C:\Users\GTSAIN~1\AppData\Local\Temp\ccIslvt7.s:1933   .text.startup.main:00000000000000f8 .L0 
C:\Users\GTSAIN~1\AppData\Local\Temp\ccIslvt7.s:1938   .rodata:0000000000000000 .LANCHOR0
C:\Users\GTSAIN~1\AppData\Local\Temp\ccIslvt7.s:1778   .text.drawing:0000000000000924 .L0 
C:\Users\GTSAIN~1\AppData\Local\Temp\ccIslvt7.s:1936   .text.startup.main:00000000000000f8 .L0 
                     .debug_frame:0000000000000000 .L0 
C:\Users\GTSAIN~1\AppData\Local\Temp\ccIslvt7.s:44     .rodata.drawing:0000000000000000 .L4
C:\Users\GTSAIN~1\AppData\Local\Temp\ccIslvt7.s:78     .text.drawing:0000000000000034 .L1
C:\Users\GTSAIN~1\AppData\Local\Temp\ccIslvt7.s:74     .text.drawing:0000000000000030 .L159
C:\Users\GTSAIN~1\AppData\Local\Temp\ccIslvt7.s:873    .text.drawing:0000000000000432 .L161
C:\Users\GTSAIN~1\AppData\Local\Temp\ccIslvt7.s:999    .text.drawing:00000000000004c8 .L20
C:\Users\GTSAIN~1\AppData\Local\Temp\ccIslvt7.s:1361   .text.drawing:00000000000006a2 .L22
C:\Users\GTSAIN~1\AppData\Local\Temp\ccIslvt7.s:1689   .text.drawing:00000000000008a4 .L173
C:\Users\GTSAIN~1\AppData\Local\Temp\ccIslvt7.s:164    .text.drawing:00000000000000b6 .L31
C:\Users\GTSAIN~1\AppData\Local\Temp\ccIslvt7.s:879    .text.drawing:0000000000000438 .L33
C:\Users\GTSAIN~1\AppData\Local\Temp\ccIslvt7.s:1502   .text.drawing:0000000000000774 .L35
C:\Users\GTSAIN~1\AppData\Local\Temp\ccIslvt7.s:1708   .text.drawing:00000000000008c8 .L174
C:\Users\GTSAIN~1\AppData\Local\Temp\ccIslvt7.s:234    .text.drawing:0000000000000108 .L44
C:\Users\GTSAIN~1\AppData\Local\Temp\ccIslvt7.s:223    .text.drawing:00000000000000fc .L45
C:\Users\GTSAIN~1\AppData\Local\Temp\ccIslvt7.s:1029   .text.drawing:00000000000004ec .L47
C:\Users\GTSAIN~1\AppData\Local\Temp\ccIslvt7.s:1467   .text.drawing:0000000000000740 .L49
C:\Users\GTSAIN~1\AppData\Local\Temp\ccIslvt7.s:1696   .text.drawing:00000000000008b0 .L175
C:\Users\GTSAIN~1\AppData\Local\Temp\ccIslvt7.s:304    .text.drawing:000000000000015c .L58
C:\Users\GTSAIN~1\AppData\Local\Temp\ccIslvt7.s:293    .text.drawing:000000000000014e .L59
C:\Users\GTSAIN~1\AppData\Local\Temp\ccIslvt7.s:909    .text.drawing:000000000000045c .L61
C:\Users\GTSAIN~1\AppData\Local\Temp\ccIslvt7.s:1537   .text.drawing:00000000000007a6 .L63
C:\Users\GTSAIN~1\AppData\Local\Temp\ccIslvt7.s:1711   .text.drawing:00000000000008ce .L176
C:\Users\GTSAIN~1\AppData\Local\Temp\ccIslvt7.s:374    .text.drawing:00000000000001b2 .L72
C:\Users\GTSAIN~1\AppData\Local\Temp\ccIslvt7.s:363    .text.drawing:00000000000001a4 .L73
C:\Users\GTSAIN~1\AppData\Local\Temp\ccIslvt7.s:939    .text.drawing:0000000000000480 .L75
C:\Users\GTSAIN~1\AppData\Local\Temp\ccIslvt7.s:1326   .text.drawing:000000000000066c .L77
C:\Users\GTSAIN~1\AppData\Local\Temp\ccIslvt7.s:1705   .text.drawing:00000000000008c2 .L177
C:\Users\GTSAIN~1\AppData\Local\Temp\ccIslvt7.s:444    .text.drawing:000000000000020a .L86
C:\Users\GTSAIN~1\AppData\Local\Temp\ccIslvt7.s:433    .text.drawing:00000000000001fc .L87
C:\Users\GTSAIN~1\AppData\Local\Temp\ccIslvt7.s:969    .text.drawing:00000000000004a4 .L89
C:\Users\GTSAIN~1\AppData\Local\Temp\ccIslvt7.s:1397   .text.drawing:00000000000006d4 .L91
C:\Users\GTSAIN~1\AppData\Local\Temp\ccIslvt7.s:1693   .text.drawing:00000000000008aa .L178
C:\Users\GTSAIN~1\AppData\Local\Temp\ccIslvt7.s:514    .text.drawing:0000000000000262 .L100
C:\Users\GTSAIN~1\AppData\Local\Temp\ccIslvt7.s:503    .text.drawing:0000000000000254 .L101
C:\Users\GTSAIN~1\AppData\Local\Temp\ccIslvt7.s:1089   .text.drawing:0000000000000534 .L103
C:\Users\GTSAIN~1\AppData\Local\Temp\ccIslvt7.s:1256   .text.drawing:0000000000000600 .L105
C:\Users\GTSAIN~1\AppData\Local\Temp\ccIslvt7.s:1702   .text.drawing:00000000000008bc .L179
C:\Users\GTSAIN~1\AppData\Local\Temp\ccIslvt7.s:584    .text.drawing:00000000000002ba .L114
C:\Users\GTSAIN~1\AppData\Local\Temp\ccIslvt7.s:573    .text.drawing:00000000000002ac .L115
C:\Users\GTSAIN~1\AppData\Local\Temp\ccIslvt7.s:1059   .text.drawing:0000000000000510 .L117
C:\Users\GTSAIN~1\AppData\Local\Temp\ccIslvt7.s:1291   .text.drawing:0000000000000636 .L119
C:\Users\GTSAIN~1\AppData\Local\Temp\ccIslvt7.s:1682   .text.drawing:0000000000000898 .L180
C:\Users\GTSAIN~1\AppData\Local\Temp\ccIslvt7.s:654    .text.drawing:0000000000000312 .L128
C:\Users\GTSAIN~1\AppData\Local\Temp\ccIslvt7.s:643    .text.drawing:0000000000000304 .L129
C:\Users\GTSAIN~1\AppData\Local\Temp\ccIslvt7.s:1119   .text.drawing:0000000000000558 .L131
C:\Users\GTSAIN~1\AppData\Local\Temp\ccIslvt7.s:1432   .text.drawing:000000000000070a .L133
GAS LISTING C:\Users\GTSAIN~1\AppData\Local\Temp\ccIslvt7.s 			page 66


C:\Users\GTSAIN~1\AppData\Local\Temp\ccIslvt7.s:1685   .text.drawing:000000000000089e .L181
C:\Users\GTSAIN~1\AppData\Local\Temp\ccIslvt7.s:724    .text.drawing:000000000000036a .L142
C:\Users\GTSAIN~1\AppData\Local\Temp\ccIslvt7.s:713    .text.drawing:000000000000035c .L143
C:\Users\GTSAIN~1\AppData\Local\Temp\ccIslvt7.s:1149   .text.drawing:000000000000057c .L145
C:\Users\GTSAIN~1\AppData\Local\Temp\ccIslvt7.s:1221   .text.drawing:00000000000005ca .L147
C:\Users\GTSAIN~1\AppData\Local\Temp\ccIslvt7.s:1699   .text.drawing:00000000000008b6 .L182
C:\Users\GTSAIN~1\AppData\Local\Temp\ccIslvt7.s:792    .text.drawing:00000000000003c0 .L156
C:\Users\GTSAIN~1\AppData\Local\Temp\ccIslvt7.s:781    .text.drawing:00000000000003b2 .L157
C:\Users\GTSAIN~1\AppData\Local\Temp\ccIslvt7.s:1181   .text.drawing:00000000000005a2 .L183
C:\Users\GTSAIN~1\AppData\Local\Temp\ccIslvt7.s:1199   .text.drawing:00000000000005b4 .L184
C:\Users\GTSAIN~1\AppData\Local\Temp\ccIslvt7.s:1673   .text.drawing:000000000000088e .L185
C:\Users\GTSAIN~1\AppData\Local\Temp\ccIslvt7.s:1715   .text.drawing:00000000000008d4 .L186
C:\Users\GTSAIN~1\AppData\Local\Temp\ccIslvt7.s:1723   .text.drawing:00000000000008de .L187
C:\Users\GTSAIN~1\AppData\Local\Temp\ccIslvt7.s:1731   .text.drawing:00000000000008ea .L188
C:\Users\GTSAIN~1\AppData\Local\Temp\ccIslvt7.s:1739   .text.drawing:00000000000008f6 .L189
C:\Users\GTSAIN~1\AppData\Local\Temp\ccIslvt7.s:1745   .text.drawing:00000000000008fc .L190
C:\Users\GTSAIN~1\AppData\Local\Temp\ccIslvt7.s:1752   .text.drawing:0000000000000904 .L191
C:\Users\GTSAIN~1\AppData\Local\Temp\ccIslvt7.s:1759   .text.drawing:000000000000090e .L192
C:\Users\GTSAIN~1\AppData\Local\Temp\ccIslvt7.s:1767   .text.drawing:0000000000000918 .L193
C:\Users\GTSAIN~1\AppData\Local\Temp\ccIslvt7.s:82     .text.drawing:0000000000000036 .L6
C:\Users\GTSAIN~1\AppData\Local\Temp\ccIslvt7.s:190    .text.drawing:00000000000000d0 .L34
C:\Users\GTSAIN~1\AppData\Local\Temp\ccIslvt7.s:330    .text.drawing:0000000000000178 .L62
C:\Users\GTSAIN~1\AppData\Local\Temp\ccIslvt7.s:400    .text.drawing:00000000000001ce .L76
C:\Users\GTSAIN~1\AppData\Local\Temp\ccIslvt7.s:470    .text.drawing:0000000000000226 .L90
C:\Users\GTSAIN~1\AppData\Local\Temp\ccIslvt7.s:130    .text.drawing:000000000000008a .L21
C:\Users\GTSAIN~1\AppData\Local\Temp\ccIslvt7.s:260    .text.drawing:0000000000000122 .L48
C:\Users\GTSAIN~1\AppData\Local\Temp\ccIslvt7.s:610    .text.drawing:00000000000002d6 .L118
C:\Users\GTSAIN~1\AppData\Local\Temp\ccIslvt7.s:540    .text.drawing:000000000000027e .L104
C:\Users\GTSAIN~1\AppData\Local\Temp\ccIslvt7.s:680    .text.drawing:000000000000032e .L132
C:\Users\GTSAIN~1\AppData\Local\Temp\ccIslvt7.s:750    .text.drawing:0000000000000386 .L146
C:\Users\GTSAIN~1\AppData\Local\Temp\ccIslvt7.s:1237   .text.drawing:00000000000005e4 .L151
C:\Users\GTSAIN~1\AppData\Local\Temp\ccIslvt7.s:759    .text.drawing:0000000000000392 .L149
C:\Users\GTSAIN~1\AppData\Local\Temp\ccIslvt7.s:1571   .text.drawing:00000000000007da .L153
C:\Users\GTSAIN~1\AppData\Local\Temp\ccIslvt7.s:1272   .text.drawing:000000000000061a .L109
C:\Users\GTSAIN~1\AppData\Local\Temp\ccIslvt7.s:551    .text.drawing:000000000000028c .L107
C:\Users\GTSAIN~1\AppData\Local\Temp\ccIslvt7.s:1623   .text.drawing:0000000000000834 .L111
C:\Users\GTSAIN~1\AppData\Local\Temp\ccIslvt7.s:1307   .text.drawing:0000000000000650 .L123
C:\Users\GTSAIN~1\AppData\Local\Temp\ccIslvt7.s:621    .text.drawing:00000000000002e4 .L121
C:\Users\GTSAIN~1\AppData\Local\Temp\ccIslvt7.s:1591   .text.drawing:00000000000007fe .L125
C:\Users\GTSAIN~1\AppData\Local\Temp\ccIslvt7.s:1342   .text.drawing:0000000000000686 .L81
C:\Users\GTSAIN~1\AppData\Local\Temp\ccIslvt7.s:411    .text.drawing:00000000000001dc .L79
C:\Users\GTSAIN~1\AppData\Local\Temp\ccIslvt7.s:1643   .text.drawing:0000000000000858 .L83
C:\Users\GTSAIN~1\AppData\Local\Temp\ccIslvt7.s:1378   .text.drawing:00000000000006ba .L26
C:\Users\GTSAIN~1\AppData\Local\Temp\ccIslvt7.s:142    .text.drawing:0000000000000098 .L24
C:\Users\GTSAIN~1\AppData\Local\Temp\ccIslvt7.s:1602   .text.drawing:0000000000000810 .L28
C:\Users\GTSAIN~1\AppData\Local\Temp\ccIslvt7.s:1413   .text.drawing:00000000000006ee .L95
C:\Users\GTSAIN~1\AppData\Local\Temp\ccIslvt7.s:481    .text.drawing:0000000000000234 .L93
C:\Users\GTSAIN~1\AppData\Local\Temp\ccIslvt7.s:1633   .text.drawing:0000000000000846 .L97
C:\Users\GTSAIN~1\AppData\Local\Temp\ccIslvt7.s:1448   .text.drawing:0000000000000724 .L137
C:\Users\GTSAIN~1\AppData\Local\Temp\ccIslvt7.s:691    .text.drawing:000000000000033c .L135
C:\Users\GTSAIN~1\AppData\Local\Temp\ccIslvt7.s:1613   .text.drawing:0000000000000822 .L139
C:\Users\GTSAIN~1\AppData\Local\Temp\ccIslvt7.s:1483   .text.drawing:000000000000075a .L53
C:\Users\GTSAIN~1\AppData\Local\Temp\ccIslvt7.s:271    .text.drawing:0000000000000130 .L51
C:\Users\GTSAIN~1\AppData\Local\Temp\ccIslvt7.s:1653   .text.drawing:000000000000086a .L55
C:\Users\GTSAIN~1\AppData\Local\Temp\ccIslvt7.s:1518   .text.drawing:000000000000078c .L39
C:\Users\GTSAIN~1\AppData\Local\Temp\ccIslvt7.s:201    .text.drawing:00000000000000de .L37
C:\Users\GTSAIN~1\AppData\Local\Temp\ccIslvt7.s:1663   .text.drawing:000000000000087c .L41
GAS LISTING C:\Users\GTSAIN~1\AppData\Local\Temp\ccIslvt7.s 			page 67


C:\Users\GTSAIN~1\AppData\Local\Temp\ccIslvt7.s:1553   .text.drawing:00000000000007c0 .L67
C:\Users\GTSAIN~1\AppData\Local\Temp\ccIslvt7.s:341    .text.drawing:0000000000000186 .L65
C:\Users\GTSAIN~1\AppData\Local\Temp\ccIslvt7.s:1581   .text.drawing:00000000000007ec .L69
C:\Users\GTSAIN~1\AppData\Local\Temp\ccIslvt7.s:1248   .text.drawing:00000000000005f6 .L154
C:\Users\GTSAIN~1\AppData\Local\Temp\ccIslvt7.s:1564   .text.drawing:00000000000007d2 .L70
C:\Users\GTSAIN~1\AppData\Local\Temp\ccIslvt7.s:1318   .text.drawing:0000000000000662 .L126
C:\Users\GTSAIN~1\AppData\Local\Temp\ccIslvt7.s:1389   .text.drawing:00000000000006cc .L29
C:\Users\GTSAIN~1\AppData\Local\Temp\ccIslvt7.s:1459   .text.drawing:0000000000000736 .L140
C:\Users\GTSAIN~1\AppData\Local\Temp\ccIslvt7.s:1283   .text.drawing:000000000000062c .L112
C:\Users\GTSAIN~1\AppData\Local\Temp\ccIslvt7.s:1424   .text.drawing:0000000000000700 .L98
C:\Users\GTSAIN~1\AppData\Local\Temp\ccIslvt7.s:1353   .text.drawing:0000000000000698 .L84
C:\Users\GTSAIN~1\AppData\Local\Temp\ccIslvt7.s:1494   .text.drawing:000000000000076c .L56
C:\Users\GTSAIN~1\AppData\Local\Temp\ccIslvt7.s:1529   .text.drawing:000000000000079e .L42
C:\Users\GTSAIN~1\AppData\Local\Temp\ccIslvt7.s:1300   .text.drawing:0000000000000646 .L122
C:\Users\GTSAIN~1\AppData\Local\Temp\ccIslvt7.s:1441   .text.drawing:000000000000071a .L136
C:\Users\GTSAIN~1\AppData\Local\Temp\ccIslvt7.s:1371   .text.drawing:00000000000006b2 .L25
C:\Users\GTSAIN~1\AppData\Local\Temp\ccIslvt7.s:1406   .text.drawing:00000000000006e4 .L94
C:\Users\GTSAIN~1\AppData\Local\Temp\ccIslvt7.s:1476   .text.drawing:0000000000000750 .L52
C:\Users\GTSAIN~1\AppData\Local\Temp\ccIslvt7.s:1230   .text.drawing:00000000000005da .L150
C:\Users\GTSAIN~1\AppData\Local\Temp\ccIslvt7.s:1265   .text.drawing:0000000000000610 .L108
C:\Users\GTSAIN~1\AppData\Local\Temp\ccIslvt7.s:1335   .text.drawing:000000000000067c .L80
C:\Users\GTSAIN~1\AppData\Local\Temp\ccIslvt7.s:1511   .text.drawing:0000000000000784 .L38
C:\Users\GTSAIN~1\AppData\Local\Temp\ccIslvt7.s:1546   .text.drawing:00000000000007b6 .L66
C:\Users\GTSAIN~1\AppData\Local\Temp\ccIslvt7.s:117    .text.drawing:000000000000007e .L19
C:\Users\GTSAIN~1\AppData\Local\Temp\ccIslvt7.s:177    .text.drawing:00000000000000c4 .L18
C:\Users\GTSAIN~1\AppData\Local\Temp\ccIslvt7.s:247    .text.drawing:0000000000000116 .L17
C:\Users\GTSAIN~1\AppData\Local\Temp\ccIslvt7.s:317    .text.drawing:000000000000016c .L16
C:\Users\GTSAIN~1\AppData\Local\Temp\ccIslvt7.s:387    .text.drawing:00000000000001c2 .L15
C:\Users\GTSAIN~1\AppData\Local\Temp\ccIslvt7.s:457    .text.drawing:000000000000021a .L14
C:\Users\GTSAIN~1\AppData\Local\Temp\ccIslvt7.s:527    .text.drawing:0000000000000272 .L13
C:\Users\GTSAIN~1\AppData\Local\Temp\ccIslvt7.s:597    .text.drawing:00000000000002ca .L12
C:\Users\GTSAIN~1\AppData\Local\Temp\ccIslvt7.s:667    .text.drawing:0000000000000322 .L11
C:\Users\GTSAIN~1\AppData\Local\Temp\ccIslvt7.s:737    .text.drawing:000000000000037a .L10
C:\Users\GTSAIN~1\AppData\Local\Temp\ccIslvt7.s:62     .text.drawing:0000000000000022 .L9
C:\Users\GTSAIN~1\AppData\Local\Temp\ccIslvt7.s:805    .text.drawing:00000000000003d0 .L8
C:\Users\GTSAIN~1\AppData\Local\Temp\ccIslvt7.s:819    .text.drawing:00000000000003e4 .L7
C:\Users\GTSAIN~1\AppData\Local\Temp\ccIslvt7.s:94     .text.drawing:000000000000004e .L5
C:\Users\GTSAIN~1\AppData\Local\Temp\ccIslvt7.s:105    .text.drawing:0000000000000066 .L3
C:\Users\GTSAIN~1\AppData\Local\Temp\ccIslvt7.s:1809   .text.startup.main:0000000000000018 .L195
C:\Users\GTSAIN~1\AppData\Local\Temp\ccIslvt7.s:1875   .text.startup.main:000000000000008e .L196
C:\Users\GTSAIN~1\AppData\Local\Temp\ccIslvt7.s:3939   .debug_abbrev:0000000000000000 .Ldebug_abbrev0
C:\Users\GTSAIN~1\AppData\Local\Temp\ccIslvt7.s:5548   .debug_str:00000000000002ca .LASF152
C:\Users\GTSAIN~1\AppData\Local\Temp\ccIslvt7.s:5530   .debug_str:0000000000000289 .LASF153
C:\Users\GTSAIN~1\AppData\Local\Temp\ccIslvt7.s:5666   .debug_str:000000000000056c .LASF154
C:\Users\GTSAIN~1\AppData\Local\Temp\ccIslvt7.s:5386   .debug_ranges:0000000000000000 .Ldebug_ranges0
C:\Users\GTSAIN~1\AppData\Local\Temp\ccIslvt7.s:5394   .debug_line:0000000000000000 .Ldebug_line0
C:\Users\GTSAIN~1\AppData\Local\Temp\ccIslvt7.s:5642   .debug_str:00000000000004f4 .LASF0
C:\Users\GTSAIN~1\AppData\Local\Temp\ccIslvt7.s:5438   .debug_str:00000000000000e2 .LASF1
C:\Users\GTSAIN~1\AppData\Local\Temp\ccIslvt7.s:5578   .debug_str:00000000000003da .LASF2
C:\Users\GTSAIN~1\AppData\Local\Temp\ccIslvt7.s:5398   .debug_str:000000000000000c .LASF3
C:\Users\GTSAIN~1\AppData\Local\Temp\ccIslvt7.s:5478   .debug_str:000000000000019c .LASF4
C:\Users\GTSAIN~1\AppData\Local\Temp\ccIslvt7.s:5410   .debug_str:0000000000000043 .LASF5
C:\Users\GTSAIN~1\AppData\Local\Temp\ccIslvt7.s:5484   .debug_str:00000000000001b9 .LASF9
C:\Users\GTSAIN~1\AppData\Local\Temp\ccIslvt7.s:5510   .debug_str:000000000000022b .LASF6
C:\Users\GTSAIN~1\AppData\Local\Temp\ccIslvt7.s:5468   .debug_str:000000000000015f .LASF7
C:\Users\GTSAIN~1\AppData\Local\Temp\ccIslvt7.s:5418   .debug_str:0000000000000077 .LASF8
C:\Users\GTSAIN~1\AppData\Local\Temp\ccIslvt7.s:5708   .debug_str:0000000000000663 .LASF10
GAS LISTING C:\Users\GTSAIN~1\AppData\Local\Temp\ccIslvt7.s 			page 68


C:\Users\GTSAIN~1\AppData\Local\Temp\ccIslvt7.s:5502   .debug_str:0000000000000202 .LASF120
C:\Users\GTSAIN~1\AppData\Local\Temp\ccIslvt7.s:5632   .debug_str:00000000000004cd .LASF11
C:\Users\GTSAIN~1\AppData\Local\Temp\ccIslvt7.s:5564   .debug_str:000000000000038f .LASF12
C:\Users\GTSAIN~1\AppData\Local\Temp\ccIslvt7.s:5434   .debug_str:00000000000000d4 .LASF13
C:\Users\GTSAIN~1\AppData\Local\Temp\ccIslvt7.s:5630   .debug_str:00000000000004c5 .LASF14
C:\Users\GTSAIN~1\AppData\Local\Temp\ccIslvt7.s:5672   .debug_str:00000000000005b9 .LASF15
C:\Users\GTSAIN~1\AppData\Local\Temp\ccIslvt7.s:5528   .debug_str:0000000000000283 .LASF16
C:\Users\GTSAIN~1\AppData\Local\Temp\ccIslvt7.s:5500   .debug_str:00000000000001fb .LASF17
C:\Users\GTSAIN~1\AppData\Local\Temp\ccIslvt7.s:5622   .debug_str:00000000000004a5 .LASF18
C:\Users\GTSAIN~1\AppData\Local\Temp\ccIslvt7.s:5624   .debug_str:00000000000004ad .LASF19
C:\Users\GTSAIN~1\AppData\Local\Temp\ccIslvt7.s:5596   .debug_str:0000000000000427 .LASF20
C:\Users\GTSAIN~1\AppData\Local\Temp\ccIslvt7.s:5660   .debug_str:000000000000054a .LASF21
C:\Users\GTSAIN~1\AppData\Local\Temp\ccIslvt7.s:5572   .debug_str:00000000000003b2 .LASF22
C:\Users\GTSAIN~1\AppData\Local\Temp\ccIslvt7.s:5584   .debug_str:00000000000003f7 .LASF23
C:\Users\GTSAIN~1\AppData\Local\Temp\ccIslvt7.s:5492   .debug_str:00000000000001de .LASF28
C:\Users\GTSAIN~1\AppData\Local\Temp\ccIslvt7.s:5648   .debug_str:0000000000000515 .LASF24
C:\Users\GTSAIN~1\AppData\Local\Temp\ccIslvt7.s:5616   .debug_str:0000000000000490 .LASF25
C:\Users\GTSAIN~1\AppData\Local\Temp\ccIslvt7.s:5486   .debug_str:00000000000001c4 .LASF26
C:\Users\GTSAIN~1\AppData\Local\Temp\ccIslvt7.s:5668   .debug_str:00000000000005ae .LASF27
C:\Users\GTSAIN~1\AppData\Local\Temp\ccIslvt7.s:5498   .debug_str:00000000000001f6 .LASF29
C:\Users\GTSAIN~1\AppData\Local\Temp\ccIslvt7.s:5430   .debug_str:00000000000000c4 .LASF30
C:\Users\GTSAIN~1\AppData\Local\Temp\ccIslvt7.s:5692   .debug_str:0000000000000625 .LASF31
C:\Users\GTSAIN~1\AppData\Local\Temp\ccIslvt7.s:5448   .debug_str:000000000000010a .LASF32
C:\Users\GTSAIN~1\AppData\Local\Temp\ccIslvt7.s:5710   .debug_str:000000000000066c .LASF33
C:\Users\GTSAIN~1\AppData\Local\Temp\ccIslvt7.s:5550   .debug_str:0000000000000344 .LASF34
C:\Users\GTSAIN~1\AppData\Local\Temp\ccIslvt7.s:5542   .debug_str:00000000000002b0 .LASF35
C:\Users\GTSAIN~1\AppData\Local\Temp\ccIslvt7.s:5628   .debug_str:00000000000004bb .LASF36
C:\Users\GTSAIN~1\AppData\Local\Temp\ccIslvt7.s:5586   .debug_str:0000000000000400 .LASF37
C:\Users\GTSAIN~1\AppData\Local\Temp\ccIslvt7.s:5686   .debug_str:00000000000005f8 .LASF38
C:\Users\GTSAIN~1\AppData\Local\Temp\ccIslvt7.s:5452   .debug_str:0000000000000119 .LASF39
C:\Users\GTSAIN~1\AppData\Local\Temp\ccIslvt7.s:5400   .debug_str:0000000000000016 .LASF40
C:\Users\GTSAIN~1\AppData\Local\Temp\ccIslvt7.s:5396   .debug_str:0000000000000000 .LASF41
C:\Users\GTSAIN~1\AppData\Local\Temp\ccIslvt7.s:5652   .debug_str:0000000000000528 .LASF42
C:\Users\GTSAIN~1\AppData\Local\Temp\ccIslvt7.s:5464   .debug_str:0000000000000150 .LASF43
C:\Users\GTSAIN~1\AppData\Local\Temp\ccIslvt7.s:5552   .debug_str:000000000000034d .LASF44
C:\Users\GTSAIN~1\AppData\Local\Temp\ccIslvt7.s:5606   .debug_str:0000000000000454 .LASF45
C:\Users\GTSAIN~1\AppData\Local\Temp\ccIslvt7.s:5482   .debug_str:00000000000001b4 .LASF46
C:\Users\GTSAIN~1\AppData\Local\Temp\ccIslvt7.s:5588   .debug_str:000000000000040a .LASF47
C:\Users\GTSAIN~1\AppData\Local\Temp\ccIslvt7.s:5444   .debug_str:00000000000000fc .LASF48
C:\Users\GTSAIN~1\AppData\Local\Temp\ccIslvt7.s:5640   .debug_str:00000000000004ee .LASF49
C:\Users\GTSAIN~1\AppData\Local\Temp\ccIslvt7.s:5598   .debug_str:0000000000000432 .LASF50
C:\Users\GTSAIN~1\AppData\Local\Temp\ccIslvt7.s:5462   .debug_str:0000000000000149 .LASF51
C:\Users\GTSAIN~1\AppData\Local\Temp\ccIslvt7.s:5512   .debug_str:000000000000023d .LASF52
C:\Users\GTSAIN~1\AppData\Local\Temp\ccIslvt7.s:5420   .debug_str:000000000000008e .LASF53
C:\Users\GTSAIN~1\AppData\Local\Temp\ccIslvt7.s:5456   .debug_str:000000000000012f .LASF54
C:\Users\GTSAIN~1\AppData\Local\Temp\ccIslvt7.s:5494   .debug_str:00000000000001e6 .LASF55
C:\Users\GTSAIN~1\AppData\Local\Temp\ccIslvt7.s:5540   .debug_str:00000000000002a9 .LASF56
C:\Users\GTSAIN~1\AppData\Local\Temp\ccIslvt7.s:5626   .debug_str:00000000000004b5 .LASF57
C:\Users\GTSAIN~1\AppData\Local\Temp\ccIslvt7.s:5436   .debug_str:00000000000000db .LASF58
C:\Users\GTSAIN~1\AppData\Local\Temp\ccIslvt7.s:5440   .debug_str:00000000000000ee .LASF59
C:\Users\GTSAIN~1\AppData\Local\Temp\ccIslvt7.s:5678   .debug_str:00000000000005d6 .LASF60
C:\Users\GTSAIN~1\AppData\Local\Temp\ccIslvt7.s:5638   .debug_str:00000000000004e5 .LASF61
C:\Users\GTSAIN~1\AppData\Local\Temp\ccIslvt7.s:5472   .debug_str:0000000000000175 .LASF62
C:\Users\GTSAIN~1\AppData\Local\Temp\ccIslvt7.s:5516   .debug_str:000000000000024a .LASF63
C:\Users\GTSAIN~1\AppData\Local\Temp\ccIslvt7.s:5534   .debug_str:0000000000000295 .LASF64
C:\Users\GTSAIN~1\AppData\Local\Temp\ccIslvt7.s:5600   .debug_str:000000000000043a .LASF65
C:\Users\GTSAIN~1\AppData\Local\Temp\ccIslvt7.s:5590   .debug_str:0000000000000411 .LASF66
GAS LISTING C:\Users\GTSAIN~1\AppData\Local\Temp\ccIslvt7.s 			page 69


C:\Users\GTSAIN~1\AppData\Local\Temp\ccIslvt7.s:5618   .debug_str:0000000000000498 .LASF67
C:\Users\GTSAIN~1\AppData\Local\Temp\ccIslvt7.s:5634   .debug_str:00000000000004d9 .LASF68
C:\Users\GTSAIN~1\AppData\Local\Temp\ccIslvt7.s:5466   .debug_str:0000000000000158 .LASF69
C:\Users\GTSAIN~1\AppData\Local\Temp\ccIslvt7.s:5504   .debug_str:0000000000000212 .LASF70
C:\Users\GTSAIN~1\AppData\Local\Temp\ccIslvt7.s:5490   .debug_str:00000000000001d6 .LASF71
C:\Users\GTSAIN~1\AppData\Local\Temp\ccIslvt7.s:5604   .debug_str:000000000000044f .LASF72
C:\Users\GTSAIN~1\AppData\Local\Temp\ccIslvt7.s:5404   .debug_str:0000000000000026 .LASF73
C:\Users\GTSAIN~1\AppData\Local\Temp\ccIslvt7.s:5614   .debug_str:0000000000000477 .LASF74
C:\Users\GTSAIN~1\AppData\Local\Temp\ccIslvt7.s:5610   .debug_str:0000000000000465 .LASF75
C:\Users\GTSAIN~1\AppData\Local\Temp\ccIslvt7.s:5558   .debug_str:000000000000036c .LASF76
C:\Users\GTSAIN~1\AppData\Local\Temp\ccIslvt7.s:5612   .debug_str:000000000000046d .LASF77
C:\Users\GTSAIN~1\AppData\Local\Temp\ccIslvt7.s:5526   .debug_str:000000000000027b .LASF78
C:\Users\GTSAIN~1\AppData\Local\Temp\ccIslvt7.s:5496   .debug_str:00000000000001ec .LASF79
C:\Users\GTSAIN~1\AppData\Local\Temp\ccIslvt7.s:5702   .debug_str:0000000000000654 .LASF80
C:\Users\GTSAIN~1\AppData\Local\Temp\ccIslvt7.s:5568   .debug_str:000000000000039b .LASF81
C:\Users\GTSAIN~1\AppData\Local\Temp\ccIslvt7.s:5506   .debug_str:000000000000021a .LASF82
C:\Users\GTSAIN~1\AppData\Local\Temp\ccIslvt7.s:5470   .debug_str:000000000000016d .LASF83
C:\Users\GTSAIN~1\AppData\Local\Temp\ccIslvt7.s:5532   .debug_str:0000000000000290 .LASF84
C:\Users\GTSAIN~1\AppData\Local\Temp\ccIslvt7.s:5406   .debug_str:0000000000000031 .LASF85
C:\Users\GTSAIN~1\AppData\Local\Temp\ccIslvt7.s:5676   .debug_str:00000000000005cc .LASF86
C:\Users\GTSAIN~1\AppData\Local\Temp\ccIslvt7.s:5458   .debug_str:0000000000000137 .LASF87
C:\Users\GTSAIN~1\AppData\Local\Temp\ccIslvt7.s:5450   .debug_str:0000000000000114 .LASF88
C:\Users\GTSAIN~1\AppData\Local\Temp\ccIslvt7.s:5636   .debug_str:00000000000004e0 .LASF89
C:\Users\GTSAIN~1\AppData\Local\Temp\ccIslvt7.s:5594   .debug_str:0000000000000420 .LASF90
C:\Users\GTSAIN~1\AppData\Local\Temp\ccIslvt7.s:5670   .debug_str:00000000000005b3 .LASF91
C:\Users\GTSAIN~1\AppData\Local\Temp\ccIslvt7.s:5518   .debug_str:0000000000000250 .LASF92
C:\Users\GTSAIN~1\AppData\Local\Temp\ccIslvt7.s:5580   .debug_str:00000000000003e8 .LASF93
C:\Users\GTSAIN~1\AppData\Local\Temp\ccIslvt7.s:5402   .debug_str:000000000000001e .LASF94
C:\Users\GTSAIN~1\AppData\Local\Temp\ccIslvt7.s:5620   .debug_str:000000000000049f .LASF95
C:\Users\GTSAIN~1\AppData\Local\Temp\ccIslvt7.s:5538   .debug_str:00000000000002a3 .LASF96
C:\Users\GTSAIN~1\AppData\Local\Temp\ccIslvt7.s:5656   .debug_str:000000000000053e .LASF97
C:\Users\GTSAIN~1\AppData\Local\Temp\ccIslvt7.s:5664   .debug_str:000000000000055f .LASF98
C:\Users\GTSAIN~1\AppData\Local\Temp\ccIslvt7.s:5650   .debug_str:000000000000051b .LASF99
C:\Users\GTSAIN~1\AppData\Local\Temp\ccIslvt7.s:5524   .debug_str:000000000000026e .LASF100
C:\Users\GTSAIN~1\AppData\Local\Temp\ccIslvt7.s:5688   .debug_str:0000000000000603 .LASF101
C:\Users\GTSAIN~1\AppData\Local\Temp\ccIslvt7.s:5560   .debug_str:0000000000000377 .LASF102
C:\Users\GTSAIN~1\AppData\Local\Temp\ccIslvt7.s:5520   .debug_str:0000000000000257 .LASF103
C:\Users\GTSAIN~1\AppData\Local\Temp\ccIslvt7.s:5694   .debug_str:000000000000062e .LASF104
C:\Users\GTSAIN~1\AppData\Local\Temp\ccIslvt7.s:5556   .debug_str:000000000000035f .LASF105
C:\Users\GTSAIN~1\AppData\Local\Temp\ccIslvt7.s:5700   .debug_str:0000000000000646 .LASF106
C:\Users\GTSAIN~1\AppData\Local\Temp\ccIslvt7.s:5428   .debug_str:00000000000000b6 .LASF107
C:\Users\GTSAIN~1\AppData\Local\Temp\ccIslvt7.s:5674   .debug_str:00000000000005c2 .LASF108
C:\Users\GTSAIN~1\AppData\Local\Temp\ccIslvt7.s:5522   .debug_str:0000000000000262 .LASF109
C:\Users\GTSAIN~1\AppData\Local\Temp\ccIslvt7.s:5662   .debug_str:0000000000000552 .LASF110
C:\Users\GTSAIN~1\AppData\Local\Temp\ccIslvt7.s:5476   .debug_str:000000000000018e .LASF111
C:\Users\GTSAIN~1\AppData\Local\Temp\ccIslvt7.s:5426   .debug_str:00000000000000a7 .LASF112
C:\Users\GTSAIN~1\AppData\Local\Temp\ccIslvt7.s:5474   .debug_str:000000000000017d .LASF113
C:\Users\GTSAIN~1\AppData\Local\Temp\ccIslvt7.s:5412   .debug_str:000000000000004c .LASF114
C:\Users\GTSAIN~1\AppData\Local\Temp\ccIslvt7.s:5414   .debug_str:000000000000005b .LASF115
C:\Users\GTSAIN~1\AppData\Local\Temp\ccIslvt7.s:5582   .debug_str:00000000000003ee .LASF116
C:\Users\GTSAIN~1\AppData\Local\Temp\ccIslvt7.s:5546   .debug_str:00000000000002c3 .LASF117
C:\Users\GTSAIN~1\AppData\Local\Temp\ccIslvt7.s:5544   .debug_str:00000000000002ba .LASF118
C:\Users\GTSAIN~1\AppData\Local\Temp\ccIslvt7.s:5680   .debug_str:00000000000005dc .LASF119
C:\Users\GTSAIN~1\AppData\Local\Temp\ccIslvt7.s:5422   .debug_str:0000000000000097 .LASF155
C:\Users\GTSAIN~1\AppData\Local\Temp\ccIslvt7.s:5488   .debug_str:00000000000001ca .LASF121
C:\Users\GTSAIN~1\AppData\Local\Temp\ccIslvt7.s:5690   .debug_str:0000000000000612 .LASF122
C:\Users\GTSAIN~1\AppData\Local\Temp\ccIslvt7.s:5554   .debug_str:0000000000000355 .LASF123
GAS LISTING C:\Users\GTSAIN~1\AppData\Local\Temp\ccIslvt7.s 			page 70


C:\Users\GTSAIN~1\AppData\Local\Temp\ccIslvt7.s:5416   .debug_str:000000000000006c .LASF124
C:\Users\GTSAIN~1\AppData\Local\Temp\ccIslvt7.s:5706   .debug_str:000000000000065e .LASF156
C:\Users\GTSAIN~1\AppData\Local\Temp\ccIslvt7.s:1783   .text.startup.main:0000000000000000 .LFB3
C:\Users\GTSAIN~1\AppData\Local\Temp\ccIslvt7.s:1934   .text.startup.main:00000000000000f8 .LFE3
C:\Users\GTSAIN~1\AppData\Local\Temp\ccIslvt7.s:4637   .debug_loc:0000000000000000 .LLST10
C:\Users\GTSAIN~1\AppData\Local\Temp\ccIslvt7.s:4650   .debug_loc:0000000000000021 .LLST11
C:\Users\GTSAIN~1\AppData\Local\Temp\ccIslvt7.s:4658   .debug_loc:0000000000000035 .LLST12
C:\Users\GTSAIN~1\AppData\Local\Temp\ccIslvt7.s:5424   .debug_str:00000000000000a2 .LASF125
C:\Users\GTSAIN~1\AppData\Local\Temp\ccIslvt7.s:5566   .debug_str:0000000000000396 .LASF126
C:\Users\GTSAIN~1\AppData\Local\Temp\ccIslvt7.s:5696   .debug_str:0000000000000633 .LASF127
C:\Users\GTSAIN~1\AppData\Local\Temp\ccIslvt7.s:5682   .debug_str:00000000000005e4 .LASF128
C:\Users\GTSAIN~1\AppData\Local\Temp\ccIslvt7.s:5704   .debug_str:0000000000000659 .LASF129
C:\Users\GTSAIN~1\AppData\Local\Temp\ccIslvt7.s:5480   .debug_str:00000000000001af .LASF130
C:\Users\GTSAIN~1\AppData\Local\Temp\ccIslvt7.s:5574   .debug_str:00000000000003c4 .LASF131
C:\Users\GTSAIN~1\AppData\Local\Temp\ccIslvt7.s:5684   .debug_str:00000000000005ea .LASF132
C:\Users\GTSAIN~1\AppData\Local\Temp\ccIslvt7.s:5646   .debug_str:0000000000000508 .LASF133
C:\Users\GTSAIN~1\AppData\Local\Temp\ccIslvt7.s:5508   .debug_str:0000000000000222 .LASF134
C:\Users\GTSAIN~1\AppData\Local\Temp\ccIslvt7.s:5408   .debug_str:000000000000003a .LASF135
C:\Users\GTSAIN~1\AppData\Local\Temp\ccIslvt7.s:1850   .text.startup.main:0000000000000050 .LVL77
C:\Users\GTSAIN~1\AppData\Local\Temp\ccIslvt7.s:1853   .text.startup.main:0000000000000058 .LVL78
C:\Users\GTSAIN~1\AppData\Local\Temp\ccIslvt7.s:1856   .text.startup.main:0000000000000060 .LVL79
C:\Users\GTSAIN~1\AppData\Local\Temp\ccIslvt7.s:1859   .text.startup.main:0000000000000068 .LVL80
C:\Users\GTSAIN~1\AppData\Local\Temp\ccIslvt7.s:1863   .text.startup.main:0000000000000072 .LVL81
C:\Users\GTSAIN~1\AppData\Local\Temp\ccIslvt7.s:1866   .text.startup.main:000000000000007a .LVL82
C:\Users\GTSAIN~1\AppData\Local\Temp\ccIslvt7.s:1871   .text.startup.main:0000000000000088 .LVL83
C:\Users\GTSAIN~1\AppData\Local\Temp\ccIslvt7.s:1880   .text.startup.main:0000000000000096 .LVL85
C:\Users\GTSAIN~1\AppData\Local\Temp\ccIslvt7.s:1884   .text.startup.main:000000000000009e .LVL86
C:\Users\GTSAIN~1\AppData\Local\Temp\ccIslvt7.s:1890   .text.startup.main:00000000000000a8 .LVL87
C:\Users\GTSAIN~1\AppData\Local\Temp\ccIslvt7.s:1892   .text.startup.main:00000000000000b0 .LVL88
C:\Users\GTSAIN~1\AppData\Local\Temp\ccIslvt7.s:1898   .text.startup.main:00000000000000b8 .LVL89
C:\Users\GTSAIN~1\AppData\Local\Temp\ccIslvt7.s:1918   .text.startup.main:00000000000000d6 .LVL92
C:\Users\GTSAIN~1\AppData\Local\Temp\ccIslvt7.s:1931   .text.startup.main:00000000000000f6 .LVL93
C:\Users\GTSAIN~1\AppData\Local\Temp\ccIslvt7.s:5536   .debug_str:000000000000029b .LASF157
C:\Users\GTSAIN~1\AppData\Local\Temp\ccIslvt7.s:14     .text.drawing:0000000000000000 .LFB2
C:\Users\GTSAIN~1\AppData\Local\Temp\ccIslvt7.s:1776   .text.drawing:0000000000000924 .LFE2
C:\Users\GTSAIN~1\AppData\Local\Temp\ccIslvt7.s:4669   .debug_loc:0000000000000053 .LLST0
C:\Users\GTSAIN~1\AppData\Local\Temp\ccIslvt7.s:4683   .debug_loc:0000000000000074 .LLST1
C:\Users\GTSAIN~1\AppData\Local\Temp\ccIslvt7.s:4727   .debug_loc:00000000000000dd .LLST2
C:\Users\GTSAIN~1\AppData\Local\Temp\ccIslvt7.s:4771   .debug_loc:0000000000000146 .LLST3
C:\Users\GTSAIN~1\AppData\Local\Temp\ccIslvt7.s:4815   .debug_loc:00000000000001af .LLST4
C:\Users\GTSAIN~1\AppData\Local\Temp\ccIslvt7.s:4859   .debug_loc:0000000000000218 .LLST5
C:\Users\GTSAIN~1\AppData\Local\Temp\ccIslvt7.s:5159   .debug_loc:00000000000004c3 .LLST6
C:\Users\GTSAIN~1\AppData\Local\Temp\ccIslvt7.s:5199   .debug_loc:0000000000000521 .LLST7
C:\Users\GTSAIN~1\AppData\Local\Temp\ccIslvt7.s:5239   .debug_loc:000000000000057f .LLST8
C:\Users\GTSAIN~1\AppData\Local\Temp\ccIslvt7.s:5269   .debug_loc:00000000000005cc .LLST9
C:\Users\GTSAIN~1\AppData\Local\Temp\ccIslvt7.s:93     .text.drawing:000000000000004e .LVL11
C:\Users\GTSAIN~1\AppData\Local\Temp\ccIslvt7.s:104    .text.drawing:0000000000000066 .LVL15
C:\Users\GTSAIN~1\AppData\Local\Temp\ccIslvt7.s:116    .text.drawing:000000000000007e .LVL19
C:\Users\GTSAIN~1\AppData\Local\Temp\ccIslvt7.s:5658   .debug_str:0000000000000543 .LASF136
C:\Users\GTSAIN~1\AppData\Local\Temp\ccIslvt7.s:5454   .debug_str:0000000000000127 .LASF137
C:\Users\GTSAIN~1\AppData\Local\Temp\ccIslvt7.s:5576   .debug_str:00000000000003d2 .LASF138
C:\Users\GTSAIN~1\AppData\Local\Temp\ccIslvt7.s:5442   .debug_str:00000000000000f4 .LASF139
C:\Users\GTSAIN~1\AppData\Local\Temp\ccIslvt7.s:5602   .debug_str:0000000000000443 .LASF140
C:\Users\GTSAIN~1\AppData\Local\Temp\ccIslvt7.s:5698   .debug_str:000000000000063d .LASF141
C:\Users\GTSAIN~1\AppData\Local\Temp\ccIslvt7.s:5460   .debug_str:000000000000013f .LASF142
C:\Users\GTSAIN~1\AppData\Local\Temp\ccIslvt7.s:5570   .debug_str:00000000000003a5 .LASF143
C:\Users\GTSAIN~1\AppData\Local\Temp\ccIslvt7.s:5592   .debug_str:0000000000000419 .LASF144
GAS LISTING C:\Users\GTSAIN~1\AppData\Local\Temp\ccIslvt7.s 			page 71


C:\Users\GTSAIN~1\AppData\Local\Temp\ccIslvt7.s:5432   .debug_str:00000000000000cd .LASF145
C:\Users\GTSAIN~1\AppData\Local\Temp\ccIslvt7.s:5644   .debug_str:0000000000000501 .LASF146
C:\Users\GTSAIN~1\AppData\Local\Temp\ccIslvt7.s:5446   .debug_str:0000000000000102 .LASF147
C:\Users\GTSAIN~1\AppData\Local\Temp\ccIslvt7.s:5514   .debug_str:0000000000000243 .LASF148
C:\Users\GTSAIN~1\AppData\Local\Temp\ccIslvt7.s:5654   .debug_str:0000000000000531 .LASF149
C:\Users\GTSAIN~1\AppData\Local\Temp\ccIslvt7.s:5608   .debug_str:0000000000000459 .LASF150
C:\Users\GTSAIN~1\AppData\Local\Temp\ccIslvt7.s:5562   .debug_str:0000000000000386 .LASF151
C:\Users\GTSAIN~1\AppData\Local\Temp\ccIslvt7.s:1793   .text.startup.main:0000000000000006 .LCFI0
C:\Users\GTSAIN~1\AppData\Local\Temp\ccIslvt7.s:1787   .text.startup.main:0000000000000000 .LVL75
C:\Users\GTSAIN~1\AppData\Local\Temp\ccIslvt7.s:1874   .text.startup.main:000000000000008e .LVL84
C:\Users\GTSAIN~1\AppData\Local\Temp\ccIslvt7.s:1904   .text.startup.main:00000000000000be .LVL90
C:\Users\GTSAIN~1\AppData\Local\Temp\ccIslvt7.s:1910   .text.startup.main:00000000000000c4 .LVL91
C:\Users\GTSAIN~1\AppData\Local\Temp\ccIslvt7.s:18     .text.drawing:0000000000000000 .LVL0
C:\Users\GTSAIN~1\AppData\Local\Temp\ccIslvt7.s:37     .text.drawing:000000000000001c .LVL5
C:\Users\GTSAIN~1\AppData\Local\Temp\ccIslvt7.s:25     .text.drawing:0000000000000008 .LVL1
C:\Users\GTSAIN~1\AppData\Local\Temp\ccIslvt7.s:27     .text.drawing:000000000000000a .LVL2
C:\Users\GTSAIN~1\AppData\Local\Temp\ccIslvt7.s:30     .text.drawing:000000000000000e .LVL3
C:\Users\GTSAIN~1\AppData\Local\Temp\ccIslvt7.s:88     .text.drawing:000000000000003e .LVL9
C:\Users\GTSAIN~1\AppData\Local\Temp\ccIslvt7.s:97     .text.drawing:0000000000000052 .LVL12
C:\Users\GTSAIN~1\AppData\Local\Temp\ccIslvt7.s:111    .text.drawing:000000000000006e .LVL17
C:\Users\GTSAIN~1\AppData\Local\Temp\ccIslvt7.s:34     .text.drawing:0000000000000016 .LVL4
C:\Users\GTSAIN~1\AppData\Local\Temp\ccIslvt7.s:90     .text.drawing:0000000000000042 .LVL10
C:\Users\GTSAIN~1\AppData\Local\Temp\ccIslvt7.s:101    .text.drawing:000000000000005a .LVL14
C:\Users\GTSAIN~1\AppData\Local\Temp\ccIslvt7.s:113    .text.drawing:0000000000000072 .LVL18
C:\Users\GTSAIN~1\AppData\Local\Temp\ccIslvt7.s:66     .text.drawing:0000000000000024 .LVL6
C:\Users\GTSAIN~1\AppData\Local\Temp\ccIslvt7.s:141    .text.drawing:0000000000000098 .LVL21
C:\Users\GTSAIN~1\AppData\Local\Temp\ccIslvt7.s:176    .text.drawing:00000000000000c4 .LVL22
C:\Users\GTSAIN~1\AppData\Local\Temp\ccIslvt7.s:200    .text.drawing:00000000000000de .LVL23
C:\Users\GTSAIN~1\AppData\Local\Temp\ccIslvt7.s:246    .text.drawing:0000000000000116 .LVL24
C:\Users\GTSAIN~1\AppData\Local\Temp\ccIslvt7.s:270    .text.drawing:0000000000000130 .LVL25
C:\Users\GTSAIN~1\AppData\Local\Temp\ccIslvt7.s:316    .text.drawing:000000000000016c .LVL26
C:\Users\GTSAIN~1\AppData\Local\Temp\ccIslvt7.s:340    .text.drawing:0000000000000186 .LVL27
C:\Users\GTSAIN~1\AppData\Local\Temp\ccIslvt7.s:386    .text.drawing:00000000000001c2 .LVL28
C:\Users\GTSAIN~1\AppData\Local\Temp\ccIslvt7.s:410    .text.drawing:00000000000001dc .LVL29
C:\Users\GTSAIN~1\AppData\Local\Temp\ccIslvt7.s:456    .text.drawing:000000000000021a .LVL30
C:\Users\GTSAIN~1\AppData\Local\Temp\ccIslvt7.s:480    .text.drawing:0000000000000234 .LVL31
C:\Users\GTSAIN~1\AppData\Local\Temp\ccIslvt7.s:526    .text.drawing:0000000000000272 .LVL32
C:\Users\GTSAIN~1\AppData\Local\Temp\ccIslvt7.s:550    .text.drawing:000000000000028c .LVL33
C:\Users\GTSAIN~1\AppData\Local\Temp\ccIslvt7.s:596    .text.drawing:00000000000002ca .LVL34
C:\Users\GTSAIN~1\AppData\Local\Temp\ccIslvt7.s:620    .text.drawing:00000000000002e4 .LVL35
C:\Users\GTSAIN~1\AppData\Local\Temp\ccIslvt7.s:666    .text.drawing:0000000000000322 .LVL36
C:\Users\GTSAIN~1\AppData\Local\Temp\ccIslvt7.s:690    .text.drawing:000000000000033c .LVL37
C:\Users\GTSAIN~1\AppData\Local\Temp\ccIslvt7.s:736    .text.drawing:000000000000037a .LVL38
C:\Users\GTSAIN~1\AppData\Local\Temp\ccIslvt7.s:758    .text.drawing:0000000000000392 .LVL39
C:\Users\GTSAIN~1\AppData\Local\Temp\ccIslvt7.s:804    .text.drawing:00000000000003d0 .LVL40
C:\Users\GTSAIN~1\AppData\Local\Temp\ccIslvt7.s:809    .text.drawing:00000000000003d4 .LVL41
C:\Users\GTSAIN~1\AppData\Local\Temp\ccIslvt7.s:818    .text.drawing:00000000000003e4 .LVL43
C:\Users\GTSAIN~1\AppData\Local\Temp\ccIslvt7.s:827    .text.drawing:00000000000003ee .LVL44
C:\Users\GTSAIN~1\AppData\Local\Temp\ccIslvt7.s:878    .text.drawing:0000000000000438 .LVL46
C:\Users\GTSAIN~1\AppData\Local\Temp\ccIslvt7.s:1180   .text.drawing:00000000000005a2 .LVL47
C:\Users\GTSAIN~1\AppData\Local\Temp\ccIslvt7.s:1198   .text.drawing:00000000000005b4 .LVL48
C:\Users\GTSAIN~1\AppData\Local\Temp\ccIslvt7.s:1241   .text.drawing:00000000000005e6 .LVL49
C:\Users\GTSAIN~1\AppData\Local\Temp\ccIslvt7.s:1255   .text.drawing:0000000000000600 .LVL50
C:\Users\GTSAIN~1\AppData\Local\Temp\ccIslvt7.s:1276   .text.drawing:000000000000061c .LVL51
C:\Users\GTSAIN~1\AppData\Local\Temp\ccIslvt7.s:1290   .text.drawing:0000000000000636 .LVL52
C:\Users\GTSAIN~1\AppData\Local\Temp\ccIslvt7.s:1311   .text.drawing:0000000000000652 .LVL53
C:\Users\GTSAIN~1\AppData\Local\Temp\ccIslvt7.s:1325   .text.drawing:000000000000066c .LVL54
GAS LISTING C:\Users\GTSAIN~1\AppData\Local\Temp\ccIslvt7.s 			page 72


C:\Users\GTSAIN~1\AppData\Local\Temp\ccIslvt7.s:1346   .text.drawing:0000000000000688 .LVL55
C:\Users\GTSAIN~1\AppData\Local\Temp\ccIslvt7.s:1360   .text.drawing:00000000000006a2 .LVL56
C:\Users\GTSAIN~1\AppData\Local\Temp\ccIslvt7.s:1382   .text.drawing:00000000000006bc .LVL58
C:\Users\GTSAIN~1\AppData\Local\Temp\ccIslvt7.s:1396   .text.drawing:00000000000006d4 .LVL59
C:\Users\GTSAIN~1\AppData\Local\Temp\ccIslvt7.s:1417   .text.drawing:00000000000006f0 .LVL60
C:\Users\GTSAIN~1\AppData\Local\Temp\ccIslvt7.s:1431   .text.drawing:000000000000070a .LVL61
C:\Users\GTSAIN~1\AppData\Local\Temp\ccIslvt7.s:1452   .text.drawing:0000000000000726 .LVL62
C:\Users\GTSAIN~1\AppData\Local\Temp\ccIslvt7.s:1466   .text.drawing:0000000000000740 .LVL63
C:\Users\GTSAIN~1\AppData\Local\Temp\ccIslvt7.s:1487   .text.drawing:000000000000075c .LVL64
C:\Users\GTSAIN~1\AppData\Local\Temp\ccIslvt7.s:1501   .text.drawing:0000000000000774 .LVL65
C:\Users\GTSAIN~1\AppData\Local\Temp\ccIslvt7.s:1522   .text.drawing:000000000000078e .LVL66
C:\Users\GTSAIN~1\AppData\Local\Temp\ccIslvt7.s:1536   .text.drawing:00000000000007a6 .LVL67
C:\Users\GTSAIN~1\AppData\Local\Temp\ccIslvt7.s:1557   .text.drawing:00000000000007c2 .LVL68
C:\Users\GTSAIN~1\AppData\Local\Temp\ccIslvt7.s:1681   .text.drawing:0000000000000898 .LVL71
C:\Users\GTSAIN~1\AppData\Local\Temp\ccIslvt7.s:1714   .text.drawing:00000000000008d4 .LVL74
C:\Users\GTSAIN~1\AppData\Local\Temp\ccIslvt7.s:81     .text.drawing:0000000000000036 .LVL7
C:\Users\GTSAIN~1\AppData\Local\Temp\ccIslvt7.s:85     .text.drawing:0000000000000038 .LVL8
C:\Users\GTSAIN~1\AppData\Local\Temp\ccIslvt7.s:99     .text.drawing:0000000000000056 .LVL13
C:\Users\GTSAIN~1\AppData\Local\Temp\ccIslvt7.s:108    .text.drawing:0000000000000068 .LVL16
C:\Users\GTSAIN~1\AppData\Local\Temp\ccIslvt7.s:138    .text.drawing:0000000000000092 .LVL20
C:\Users\GTSAIN~1\AppData\Local\Temp\ccIslvt7.s:811    .text.drawing:00000000000003d6 .LVL42
C:\Users\GTSAIN~1\AppData\Local\Temp\ccIslvt7.s:872    .text.drawing:0000000000000432 .LVL45
C:\Users\GTSAIN~1\AppData\Local\Temp\ccIslvt7.s:1364   .text.drawing:00000000000006a4 .LVL57
C:\Users\GTSAIN~1\AppData\Local\Temp\ccIslvt7.s:1601   .text.drawing:0000000000000810 .LVL69
C:\Users\GTSAIN~1\AppData\Local\Temp\ccIslvt7.s:1612   .text.drawing:0000000000000822 .LVL70
C:\Users\GTSAIN~1\AppData\Local\Temp\ccIslvt7.s:1688   .text.drawing:00000000000008a4 .LVL72
C:\Users\GTSAIN~1\AppData\Local\Temp\ccIslvt7.s:1692   .text.drawing:00000000000008aa .LVL73
C:\Users\GTSAIN~1\AppData\Local\Temp\ccIslvt7.s:1969   .debug_info:0000000000000000 .Ldebug_info0

UNDEFINED SYMBOLS
LCD_DrawLine
Draw_Circle
LCD_Fill
t5omsi
colinit
l88init
keyinit
Lcd_SetType
Lcd_Init
LCD_Clear
LCD_WR_Queue
t5expq
colset
l88row
keyscan
l88mem
