GAS LISTING C:\Users\GTSAIN~1\AppData\Local\Temp\ccZZtanm.s 			page 1


   1              		.file	"write.c"
   2              		.option nopic
   3              		.attribute arch, "rv32i2p0_m2p0_a2p0_c2p0"
   4              		.attribute unaligned_access, 0
   5              		.attribute stack_align, 16
   6              		.text
   7              	.Ltext0:
   8              		.cfi_sections	.debug_frame
   9              		.section	.text._put_char,"ax",@progbits
  10              		.align	1
  11              		.weak	_put_char
  13              	_put_char:
  14              	.LFB6:
  15              		.file 1 "../../firmware/RISCV/stubs/write.c"
   1:../../firmware/RISCV/stubs/write.c **** /* See LICENSE of license details. */
   2:../../firmware/RISCV/stubs/write.c **** 
   3:../../firmware/RISCV/stubs/write.c **** #include <stdint.h>
   4:../../firmware/RISCV/stubs/write.c **** #include <string.h>
   5:../../firmware/RISCV/stubs/write.c **** #include <errno.h>
   6:../../firmware/RISCV/stubs/write.c **** #include <gd32vf103.h>
   7:../../firmware/RISCV/stubs/write.c **** 
   8:../../firmware/RISCV/stubs/write.c **** #if   defined (__GNUC__)
   9:../../firmware/RISCV/stubs/write.c **** #include <unistd.h>
  10:../../firmware/RISCV/stubs/write.c **** #include <sys/types.h>
  11:../../firmware/RISCV/stubs/write.c **** #endif
  12:../../firmware/RISCV/stubs/write.c **** 
  13:../../firmware/RISCV/stubs/write.c **** #include "stub.h"
  14:../../firmware/RISCV/stubs/write.c **** #include "gd32vf103.h"
  15:../../firmware/RISCV/stubs/write.c **** 
  16:../../firmware/RISCV/stubs/write.c **** //typedef unsigned int size_t;
  17:../../firmware/RISCV/stubs/write.c **** extern int _put_char(int ch) __attribute__((weak));
  18:../../firmware/RISCV/stubs/write.c **** 
  19:../../firmware/RISCV/stubs/write.c **** #if   defined (__ICCRISCV__)
  20:../../firmware/RISCV/stubs/write.c **** size_t __write(int handle, const unsigned char *buf, size_t bufSize)
  21:../../firmware/RISCV/stubs/write.c **** {
  22:../../firmware/RISCV/stubs/write.c ****   size_t nChars = 0;
  23:../../firmware/RISCV/stubs/write.c ****   
  24:../../firmware/RISCV/stubs/write.c ****   if (handle == -1)
  25:../../firmware/RISCV/stubs/write.c ****   {
  26:../../firmware/RISCV/stubs/write.c ****     return 0;
  27:../../firmware/RISCV/stubs/write.c ****   }
  28:../../firmware/RISCV/stubs/write.c ****   
  29:../../firmware/RISCV/stubs/write.c ****   for (; bufSize > 0; --bufSize)
  30:../../firmware/RISCV/stubs/write.c ****   {
  31:../../firmware/RISCV/stubs/write.c ****     _put_char((uint8_t) *buf);
  32:../../firmware/RISCV/stubs/write.c ****     ++buf;
  33:../../firmware/RISCV/stubs/write.c ****     ++nChars;
  34:../../firmware/RISCV/stubs/write.c ****   }
  35:../../firmware/RISCV/stubs/write.c ****   
  36:../../firmware/RISCV/stubs/write.c ****   return nChars;
  37:../../firmware/RISCV/stubs/write.c ****  }
  38:../../firmware/RISCV/stubs/write.c **** 
  39:../../firmware/RISCV/stubs/write.c **** int puts(const char* string) {
  40:../../firmware/RISCV/stubs/write.c ****     return __write(0, (const void *) string, strlen(string));
  41:../../firmware/RISCV/stubs/write.c **** }
  42:../../firmware/RISCV/stubs/write.c ****  
  43:../../firmware/RISCV/stubs/write.c **** #elif defined ( __GNUC__ )
GAS LISTING C:\Users\GTSAIN~1\AppData\Local\Temp\ccZZtanm.s 			page 2


  44:../../firmware/RISCV/stubs/write.c **** ssize_t _write(int fd, const void* ptr, size_t len) {
  45:../../firmware/RISCV/stubs/write.c ****     const uint8_t * current = (const uint8_t *) ptr;
  46:../../firmware/RISCV/stubs/write.c ****     {
  47:../../firmware/RISCV/stubs/write.c ****         for (size_t jj = 0; jj < len; jj++) {
  48:../../firmware/RISCV/stubs/write.c ****             _put_char(current[jj]);
  49:../../firmware/RISCV/stubs/write.c **** 
  50:../../firmware/RISCV/stubs/write.c ****             if (current[jj] == '\n') {
  51:../../firmware/RISCV/stubs/write.c ****                 _put_char('\r');
  52:../../firmware/RISCV/stubs/write.c ****             }
  53:../../firmware/RISCV/stubs/write.c ****         }
  54:../../firmware/RISCV/stubs/write.c ****         return len;
  55:../../firmware/RISCV/stubs/write.c ****     }
  56:../../firmware/RISCV/stubs/write.c **** 
  57:../../firmware/RISCV/stubs/write.c ****     return _stub(EBADF);
  58:../../firmware/RISCV/stubs/write.c **** }
  59:../../firmware/RISCV/stubs/write.c **** 
  60:../../firmware/RISCV/stubs/write.c **** int puts(const char* string) {
  61:../../firmware/RISCV/stubs/write.c ****     return _write(0, (const void *) string, strlen(string));
  62:../../firmware/RISCV/stubs/write.c **** }
  63:../../firmware/RISCV/stubs/write.c **** #endif
  64:../../firmware/RISCV/stubs/write.c **** 
  65:../../firmware/RISCV/stubs/write.c **** int _put_char(int ch)
  66:../../firmware/RISCV/stubs/write.c **** {
  16              		.loc 1 66 1
  17              		.cfi_startproc
  18              	.LVL0:
  67:../../firmware/RISCV/stubs/write.c ****     usart_data_transmit(USART0, (uint8_t) ch );
  19              		.loc 1 67 5
  66:../../firmware/RISCV/stubs/write.c ****     usart_data_transmit(USART0, (uint8_t) ch );
  20              		.loc 1 66 1 is_stmt 0
  21 0000 4111     		addi	sp,sp,-16
  22              	.LCFI0:
  23              		.cfi_def_cfa_offset 16
  24 0002 22C4     		sw	s0,8(sp)
  25              		.cfi_offset 8, -8
  26              		.loc 1 67 5
  27 0004 37440140 		li	s0,1073823744
  66:../../firmware/RISCV/stubs/write.c ****     usart_data_transmit(USART0, (uint8_t) ch );
  28              		.loc 1 66 1
  29 0008 26C2     		sw	s1,4(sp)
  30              		.loc 1 67 5
  31 000a 9375F50F 		andi	a1,a0,0xff
  32              		.cfi_offset 9, -12
  66:../../firmware/RISCV/stubs/write.c ****     usart_data_transmit(USART0, (uint8_t) ch );
  33              		.loc 1 66 1
  34 000e AA84     		mv	s1,a0
  35              		.loc 1 67 5
  36 0010 13050480 		addi	a0,s0,-2048
  37              	.LVL1:
  66:../../firmware/RISCV/stubs/write.c ****     usart_data_transmit(USART0, (uint8_t) ch );
  38              		.loc 1 66 1
  39 0014 06C6     		sw	ra,12(sp)
  40              		.cfi_offset 1, -4
  68:../../firmware/RISCV/stubs/write.c ****     while (usart_flag_get(USART0, USART_FLAG_TBE)== RESET){
  41              		.loc 1 68 12
  42 0016 13040480 		addi	s0,s0,-2048
  67:../../firmware/RISCV/stubs/write.c ****     usart_data_transmit(USART0, (uint8_t) ch );
GAS LISTING C:\Users\GTSAIN~1\AppData\Local\Temp\ccZZtanm.s 			page 3


  43              		.loc 1 67 5
  44 001a 97000000 		call	usart_data_transmit
  44      E7800000 
  45              	.LVL2:
  46              		.loc 1 68 5 is_stmt 1
  47              	.L2:
  69:../../firmware/RISCV/stubs/write.c ****     }
  48              		.loc 1 69 5 discriminator 1
  68:../../firmware/RISCV/stubs/write.c ****     while (usart_flag_get(USART0, USART_FLAG_TBE)== RESET){
  49              		.loc 1 68 12 is_stmt 0 discriminator 1
  50 0022 9D45     		li	a1,7
  51 0024 2285     		mv	a0,s0
  52 0026 97000000 		call	usart_flag_get
  52      E7800000 
  53              	.LVL3:
  68:../../firmware/RISCV/stubs/write.c ****     while (usart_flag_get(USART0, USART_FLAG_TBE)== RESET){
  54              		.loc 1 68 11 discriminator 1
  55 002e 75D9     		beq	a0,zero,.L2
  70:../../firmware/RISCV/stubs/write.c **** 
  71:../../firmware/RISCV/stubs/write.c ****     return ch;
  56              		.loc 1 71 5 is_stmt 1
  72:../../firmware/RISCV/stubs/write.c **** }
  57              		.loc 1 72 1 is_stmt 0
  58 0030 B240     		lw	ra,12(sp)
  59              		.cfi_restore 1
  60 0032 2244     		lw	s0,8(sp)
  61              		.cfi_restore 8
  62 0034 2685     		mv	a0,s1
  63 0036 9244     		lw	s1,4(sp)
  64              		.cfi_restore 9
  65              	.LVL4:
  66 0038 4101     		addi	sp,sp,16
  67              	.LCFI1:
  68              		.cfi_def_cfa_offset 0
  69 003a 8280     		jr	ra
  70              		.cfi_endproc
  71              	.LFE6:
  73              		.section	.text._write,"ax",@progbits
  74              		.align	1
  75              		.globl	_write
  77              	_write:
  78              	.LFB4:
  44:../../firmware/RISCV/stubs/write.c ****     const uint8_t * current = (const uint8_t *) ptr;
  79              		.loc 1 44 53 is_stmt 1
  80              		.cfi_startproc
  81              	.LVL5:
  45:../../firmware/RISCV/stubs/write.c ****     {
  82              		.loc 1 45 5
  47:../../firmware/RISCV/stubs/write.c ****             _put_char(current[jj]);
  83              		.loc 1 47 9
  84              	.LBB2:
  47:../../firmware/RISCV/stubs/write.c ****             _put_char(current[jj]);
  85              		.loc 1 47 14
  86              	.LBE2:
  44:../../firmware/RISCV/stubs/write.c ****     const uint8_t * current = (const uint8_t *) ptr;
  87              		.loc 1 44 53 is_stmt 0
  88 0000 0111     		addi	sp,sp,-32
GAS LISTING C:\Users\GTSAIN~1\AppData\Local\Temp\ccZZtanm.s 			page 4


  89              	.LCFI2:
  90              		.cfi_def_cfa_offset 32
  91 0002 4EC6     		sw	s3,12(sp)
  92 0004 06CE     		sw	ra,28(sp)
  93 0006 22CC     		sw	s0,24(sp)
  94 0008 26CA     		sw	s1,20(sp)
  95 000a 4AC8     		sw	s2,16(sp)
  96              		.cfi_offset 19, -20
  97              		.cfi_offset 1, -4
  98              		.cfi_offset 8, -8
  99              		.cfi_offset 9, -12
 100              		.cfi_offset 18, -16
  44:../../firmware/RISCV/stubs/write.c ****     const uint8_t * current = (const uint8_t *) ptr;
 101              		.loc 1 44 53
 102 000c B289     		mv	s3,a2
 103              	.LBB3:
  47:../../firmware/RISCV/stubs/write.c ****             _put_char(current[jj]);
 104              		.loc 1 47 9
 105 000e 15C2     		beq	a2,zero,.L8
 106 0010 2E84     		mv	s0,a1
 107 0012 3389C500 		add	s2,a1,a2
  50:../../firmware/RISCV/stubs/write.c ****                 _put_char('\r');
 108              		.loc 1 50 16
 109 0016 A944     		li	s1,10
 110              	.LVL6:
 111              	.L10:
  48:../../firmware/RISCV/stubs/write.c **** 
 112              		.loc 1 48 13 is_stmt 1
 113 0018 03450400 		lbu	a0,0(s0)
 114 001c 0504     		addi	s0,s0,1
 115              	.LVL7:
 116 001e 97000000 		call	_put_char
 116      E7800000 
 117              	.LVL8:
  50:../../firmware/RISCV/stubs/write.c ****                 _put_char('\r');
 118              		.loc 1 50 13
  50:../../firmware/RISCV/stubs/write.c ****                 _put_char('\r');
 119              		.loc 1 50 16 is_stmt 0
 120 0026 8347F4FF 		lbu	a5,-1(s0)
 121 002a 638C9700 		beq	a5,s1,.L16
 122              	.LVL9:
  47:../../firmware/RISCV/stubs/write.c ****             _put_char(current[jj]);
 123              		.loc 1 47 9 discriminator 2
 124 002e E31524FF 		bne	s0,s2,.L10
 125              	.L8:
 126              	.LBE3:
  54:../../firmware/RISCV/stubs/write.c ****     }
 127              		.loc 1 54 9 is_stmt 1
  58:../../firmware/RISCV/stubs/write.c **** 
 128              		.loc 1 58 1 is_stmt 0
 129 0032 F240     		lw	ra,28(sp)
 130              		.cfi_remember_state
 131              		.cfi_restore 1
 132 0034 6244     		lw	s0,24(sp)
 133              		.cfi_restore 8
 134 0036 4E85     		mv	a0,s3
 135 0038 D244     		lw	s1,20(sp)
GAS LISTING C:\Users\GTSAIN~1\AppData\Local\Temp\ccZZtanm.s 			page 5


 136              		.cfi_restore 9
 137 003a 4249     		lw	s2,16(sp)
 138              		.cfi_restore 18
 139 003c B249     		lw	s3,12(sp)
 140              		.cfi_restore 19
 141              	.LVL10:
 142 003e 0561     		addi	sp,sp,32
 143              	.LCFI3:
 144              		.cfi_def_cfa_offset 0
 145 0040 8280     		jr	ra
 146              	.LVL11:
 147              	.L16:
 148              	.LCFI4:
 149              		.cfi_restore_state
 150              	.LBB4:
  51:../../firmware/RISCV/stubs/write.c ****             }
 151              		.loc 1 51 17 is_stmt 1
 152 0042 3545     		li	a0,13
 153 0044 97000000 		call	_put_char
 153      E7800000 
 154              	.LVL12:
  47:../../firmware/RISCV/stubs/write.c ****             _put_char(current[jj]);
 155              		.loc 1 47 9 is_stmt 0
 156 004c E31624FD 		bne	s0,s2,.L10
 157 0050 CDB7     		j	.L8
 158              	.LBE4:
 159              		.cfi_endproc
 160              	.LFE4:
 162              		.section	.text.puts,"ax",@progbits
 163              		.align	1
 164              		.globl	puts
 166              	puts:
 167              	.LFB5:
  60:../../firmware/RISCV/stubs/write.c ****     return _write(0, (const void *) string, strlen(string));
 168              		.loc 1 60 30 is_stmt 1
 169              		.cfi_startproc
 170              	.LVL13:
  61:../../firmware/RISCV/stubs/write.c **** }
 171              		.loc 1 61 5
  60:../../firmware/RISCV/stubs/write.c ****     return _write(0, (const void *) string, strlen(string));
 172              		.loc 1 60 30 is_stmt 0
 173 0000 4111     		addi	sp,sp,-16
 174              	.LCFI5:
 175              		.cfi_def_cfa_offset 16
 176 0002 22C4     		sw	s0,8(sp)
 177 0004 06C6     		sw	ra,12(sp)
 178              		.cfi_offset 8, -8
 179              		.cfi_offset 1, -4
  60:../../firmware/RISCV/stubs/write.c ****     return _write(0, (const void *) string, strlen(string));
 180              		.loc 1 60 30
 181 0006 2A84     		mv	s0,a0
  61:../../firmware/RISCV/stubs/write.c **** }
 182              		.loc 1 61 12
 183 0008 97000000 		call	strlen
 183      E7800000 
 184              	.LVL14:
 185 0010 A285     		mv	a1,s0
GAS LISTING C:\Users\GTSAIN~1\AppData\Local\Temp\ccZZtanm.s 			page 6


  62:../../firmware/RISCV/stubs/write.c **** #endif
 186              		.loc 1 62 1
 187 0012 2244     		lw	s0,8(sp)
 188              		.cfi_restore 8
 189              	.LVL15:
 190 0014 B240     		lw	ra,12(sp)
 191              		.cfi_restore 1
  61:../../firmware/RISCV/stubs/write.c **** }
 192              		.loc 1 61 12
 193 0016 2A86     		mv	a2,a0
  62:../../firmware/RISCV/stubs/write.c **** #endif
 194              		.loc 1 62 1
  61:../../firmware/RISCV/stubs/write.c **** }
 195              		.loc 1 61 12
 196 0018 0145     		li	a0,0
  62:../../firmware/RISCV/stubs/write.c **** #endif
 197              		.loc 1 62 1
 198 001a 4101     		addi	sp,sp,16
 199              	.LCFI6:
 200              		.cfi_def_cfa_offset 0
  61:../../firmware/RISCV/stubs/write.c **** }
 201              		.loc 1 61 12
 202 001c 17030000 		tail	_write
 202      67000300 
 203              	.LVL16:
 204              		.cfi_endproc
 205              	.LFE5:
 207              		.text
 208              	.Letext0:
 209              		.file 2 "c:\\users\\gtsa infinity\\desktop\\toolchain-gd32v-win\\compiler\\riscv64-unknown-elf\\in
 210              		.file 3 "c:\\users\\gtsa infinity\\desktop\\toolchain-gd32v-win\\compiler\\riscv64-unknown-elf\\in
 211              		.file 4 "c:\\users\\gtsa infinity\\desktop\\toolchain-gd32v-win\\compiler\\lib\\gcc\\riscv64-unkno
 212              		.file 5 "c:\\users\\gtsa infinity\\desktop\\toolchain-gd32v-win\\compiler\\riscv64-unknown-elf\\in
 213              		.file 6 "c:\\users\\gtsa infinity\\desktop\\toolchain-gd32v-win\\compiler\\riscv64-unknown-elf\\in
 214              		.file 7 "c:\\users\\gtsa infinity\\desktop\\toolchain-gd32v-win\\compiler\\riscv64-unknown-elf\\in
 215              		.file 8 "c:\\users\\gtsa infinity\\desktop\\toolchain-gd32v-win\\compiler\\riscv64-unknown-elf\\in
 216              		.file 9 "../../firmware/GD32VF103_standard_peripheral/system_gd32vf103.h"
 217              		.file 10 "../../firmware/GD32VF103_standard_peripheral/gd32vf103.h"
 218              		.file 11 "../../firmware/GD32VF103_standard_peripheral/Include/gd32vf103_usart.h"
 219              		.file 12 "c:\\users\\gtsa infinity\\desktop\\toolchain-gd32v-win\\compiler\\riscv64-unknown-elf\\i
 220              		.file 13 "c:\\users\\gtsa infinity\\desktop\\toolchain-gd32v-win\\compiler\\riscv64-unknown-elf\\i
 221              		.file 14 "c:\\users\\gtsa infinity\\desktop\\toolchain-gd32v-win\\compiler\\riscv64-unknown-elf\\i
GAS LISTING C:\Users\GTSAIN~1\AppData\Local\Temp\ccZZtanm.s 			page 7


DEFINED SYMBOLS
                            *ABS*:0000000000000000 write.c
C:\Users\GTSAIN~1\AppData\Local\Temp\ccZZtanm.s:13     .text._put_char:0000000000000000 _put_char
C:\Users\GTSAIN~1\AppData\Local\Temp\ccZZtanm.s:17     .text._put_char:0000000000000000 .L0 
C:\Users\GTSAIN~1\AppData\Local\Temp\ccZZtanm.s:19     .text._put_char:0000000000000000 .L0 
C:\Users\GTSAIN~1\AppData\Local\Temp\ccZZtanm.s:20     .text._put_char:0000000000000000 .L0 
C:\Users\GTSAIN~1\AppData\Local\Temp\ccZZtanm.s:21     .text._put_char:0000000000000000 .L0 
C:\Users\GTSAIN~1\AppData\Local\Temp\ccZZtanm.s:23     .text._put_char:0000000000000002 .L0 
C:\Users\GTSAIN~1\AppData\Local\Temp\ccZZtanm.s:25     .text._put_char:0000000000000004 .L0 
C:\Users\GTSAIN~1\AppData\Local\Temp\ccZZtanm.s:27     .text._put_char:0000000000000004 .L0 
C:\Users\GTSAIN~1\AppData\Local\Temp\ccZZtanm.s:29     .text._put_char:0000000000000008 .L0 
C:\Users\GTSAIN~1\AppData\Local\Temp\ccZZtanm.s:31     .text._put_char:000000000000000a .L0 
C:\Users\GTSAIN~1\AppData\Local\Temp\ccZZtanm.s:32     .text._put_char:000000000000000e .L0 
C:\Users\GTSAIN~1\AppData\Local\Temp\ccZZtanm.s:34     .text._put_char:000000000000000e .L0 
C:\Users\GTSAIN~1\AppData\Local\Temp\ccZZtanm.s:36     .text._put_char:0000000000000010 .L0 
C:\Users\GTSAIN~1\AppData\Local\Temp\ccZZtanm.s:39     .text._put_char:0000000000000014 .L0 
C:\Users\GTSAIN~1\AppData\Local\Temp\ccZZtanm.s:40     .text._put_char:0000000000000016 .L0 
C:\Users\GTSAIN~1\AppData\Local\Temp\ccZZtanm.s:42     .text._put_char:0000000000000016 .L0 
C:\Users\GTSAIN~1\AppData\Local\Temp\ccZZtanm.s:44     .text._put_char:000000000000001a .L0 
C:\Users\GTSAIN~1\AppData\Local\Temp\ccZZtanm.s:48     .text._put_char:0000000000000022 .L0 
C:\Users\GTSAIN~1\AppData\Local\Temp\ccZZtanm.s:49     .text._put_char:0000000000000022 .L0 
C:\Users\GTSAIN~1\AppData\Local\Temp\ccZZtanm.s:50     .text._put_char:0000000000000022 .L0 
C:\Users\GTSAIN~1\AppData\Local\Temp\ccZZtanm.s:55     .text._put_char:000000000000002e .L0 
C:\Users\GTSAIN~1\AppData\Local\Temp\ccZZtanm.s:57     .text._put_char:0000000000000030 .L0 
C:\Users\GTSAIN~1\AppData\Local\Temp\ccZZtanm.s:58     .text._put_char:0000000000000030 .L0 
C:\Users\GTSAIN~1\AppData\Local\Temp\ccZZtanm.s:59     .text._put_char:0000000000000032 .L0 
C:\Users\GTSAIN~1\AppData\Local\Temp\ccZZtanm.s:61     .text._put_char:0000000000000034 .L0 
C:\Users\GTSAIN~1\AppData\Local\Temp\ccZZtanm.s:64     .text._put_char:0000000000000038 .L0 
C:\Users\GTSAIN~1\AppData\Local\Temp\ccZZtanm.s:68     .text._put_char:000000000000003a .L0 
C:\Users\GTSAIN~1\AppData\Local\Temp\ccZZtanm.s:70     .text._put_char:000000000000003c .L0 
C:\Users\GTSAIN~1\AppData\Local\Temp\ccZZtanm.s:77     .text._write:0000000000000000 _write
C:\Users\GTSAIN~1\AppData\Local\Temp\ccZZtanm.s:80     .text._write:0000000000000000 .L0 
C:\Users\GTSAIN~1\AppData\Local\Temp\ccZZtanm.s:82     .text._write:0000000000000000 .L0 
C:\Users\GTSAIN~1\AppData\Local\Temp\ccZZtanm.s:83     .text._write:0000000000000000 .L0 
C:\Users\GTSAIN~1\AppData\Local\Temp\ccZZtanm.s:85     .text._write:0000000000000000 .L0 
C:\Users\GTSAIN~1\AppData\Local\Temp\ccZZtanm.s:87     .text._write:0000000000000000 .L0 
C:\Users\GTSAIN~1\AppData\Local\Temp\ccZZtanm.s:88     .text._write:0000000000000000 .L0 
C:\Users\GTSAIN~1\AppData\Local\Temp\ccZZtanm.s:90     .text._write:0000000000000002 .L0 
C:\Users\GTSAIN~1\AppData\Local\Temp\ccZZtanm.s:96     .text._write:000000000000000c .L0 
C:\Users\GTSAIN~1\AppData\Local\Temp\ccZZtanm.s:97     .text._write:000000000000000c .L0 
C:\Users\GTSAIN~1\AppData\Local\Temp\ccZZtanm.s:98     .text._write:000000000000000c .L0 
C:\Users\GTSAIN~1\AppData\Local\Temp\ccZZtanm.s:99     .text._write:000000000000000c .L0 
C:\Users\GTSAIN~1\AppData\Local\Temp\ccZZtanm.s:100    .text._write:000000000000000c .L0 
C:\Users\GTSAIN~1\AppData\Local\Temp\ccZZtanm.s:102    .text._write:000000000000000c .L0 
C:\Users\GTSAIN~1\AppData\Local\Temp\ccZZtanm.s:105    .text._write:000000000000000e .L0 
C:\Users\GTSAIN~1\AppData\Local\Temp\ccZZtanm.s:109    .text._write:0000000000000016 .L0 
C:\Users\GTSAIN~1\AppData\Local\Temp\ccZZtanm.s:113    .text._write:0000000000000018 .L0 
C:\Users\GTSAIN~1\AppData\Local\Temp\ccZZtanm.s:119    .text._write:0000000000000026 .L0 
C:\Users\GTSAIN~1\AppData\Local\Temp\ccZZtanm.s:120    .text._write:0000000000000026 .L0 
C:\Users\GTSAIN~1\AppData\Local\Temp\ccZZtanm.s:124    .text._write:000000000000002e .L0 
C:\Users\GTSAIN~1\AppData\Local\Temp\ccZZtanm.s:128    .text._write:0000000000000032 .L0 
C:\Users\GTSAIN~1\AppData\Local\Temp\ccZZtanm.s:129    .text._write:0000000000000032 .L0 
C:\Users\GTSAIN~1\AppData\Local\Temp\ccZZtanm.s:130    .text._write:0000000000000034 .L0 
C:\Users\GTSAIN~1\AppData\Local\Temp\ccZZtanm.s:131    .text._write:0000000000000034 .L0 
C:\Users\GTSAIN~1\AppData\Local\Temp\ccZZtanm.s:133    .text._write:0000000000000036 .L0 
C:\Users\GTSAIN~1\AppData\Local\Temp\ccZZtanm.s:136    .text._write:000000000000003a .L0 
C:\Users\GTSAIN~1\AppData\Local\Temp\ccZZtanm.s:138    .text._write:000000000000003c .L0 
GAS LISTING C:\Users\GTSAIN~1\AppData\Local\Temp\ccZZtanm.s 			page 8


C:\Users\GTSAIN~1\AppData\Local\Temp\ccZZtanm.s:140    .text._write:000000000000003e .L0 
C:\Users\GTSAIN~1\AppData\Local\Temp\ccZZtanm.s:144    .text._write:0000000000000040 .L0 
C:\Users\GTSAIN~1\AppData\Local\Temp\ccZZtanm.s:149    .text._write:0000000000000042 .L0 
C:\Users\GTSAIN~1\AppData\Local\Temp\ccZZtanm.s:152    .text._write:0000000000000042 .L0 
C:\Users\GTSAIN~1\AppData\Local\Temp\ccZZtanm.s:156    .text._write:000000000000004c .L0 
C:\Users\GTSAIN~1\AppData\Local\Temp\ccZZtanm.s:159    .text._write:0000000000000052 .L0 
C:\Users\GTSAIN~1\AppData\Local\Temp\ccZZtanm.s:166    .text.puts:0000000000000000 puts
C:\Users\GTSAIN~1\AppData\Local\Temp\ccZZtanm.s:169    .text.puts:0000000000000000 .L0 
C:\Users\GTSAIN~1\AppData\Local\Temp\ccZZtanm.s:171    .text.puts:0000000000000000 .L0 
C:\Users\GTSAIN~1\AppData\Local\Temp\ccZZtanm.s:172    .text.puts:0000000000000000 .L0 
C:\Users\GTSAIN~1\AppData\Local\Temp\ccZZtanm.s:173    .text.puts:0000000000000000 .L0 
C:\Users\GTSAIN~1\AppData\Local\Temp\ccZZtanm.s:175    .text.puts:0000000000000002 .L0 
C:\Users\GTSAIN~1\AppData\Local\Temp\ccZZtanm.s:178    .text.puts:0000000000000006 .L0 
C:\Users\GTSAIN~1\AppData\Local\Temp\ccZZtanm.s:179    .text.puts:0000000000000006 .L0 
C:\Users\GTSAIN~1\AppData\Local\Temp\ccZZtanm.s:181    .text.puts:0000000000000006 .L0 
C:\Users\GTSAIN~1\AppData\Local\Temp\ccZZtanm.s:183    .text.puts:0000000000000008 .L0 
C:\Users\GTSAIN~1\AppData\Local\Temp\ccZZtanm.s:187    .text.puts:0000000000000012 .L0 
C:\Users\GTSAIN~1\AppData\Local\Temp\ccZZtanm.s:188    .text.puts:0000000000000014 .L0 
C:\Users\GTSAIN~1\AppData\Local\Temp\ccZZtanm.s:191    .text.puts:0000000000000016 .L0 
C:\Users\GTSAIN~1\AppData\Local\Temp\ccZZtanm.s:193    .text.puts:0000000000000016 .L0 
C:\Users\GTSAIN~1\AppData\Local\Temp\ccZZtanm.s:195    .text.puts:0000000000000018 .L0 
C:\Users\GTSAIN~1\AppData\Local\Temp\ccZZtanm.s:196    .text.puts:0000000000000018 .L0 
C:\Users\GTSAIN~1\AppData\Local\Temp\ccZZtanm.s:198    .text.puts:000000000000001a .L0 
C:\Users\GTSAIN~1\AppData\Local\Temp\ccZZtanm.s:200    .text.puts:000000000000001c .L0 
C:\Users\GTSAIN~1\AppData\Local\Temp\ccZZtanm.s:202    .text.puts:000000000000001c .L0 
C:\Users\GTSAIN~1\AppData\Local\Temp\ccZZtanm.s:204    .text.puts:0000000000000024 .L0 
C:\Users\GTSAIN~1\AppData\Local\Temp\ccZZtanm.s:73     .text._put_char:000000000000003c .L0 
C:\Users\GTSAIN~1\AppData\Local\Temp\ccZZtanm.s:162    .text._write:0000000000000052 .L0 
C:\Users\GTSAIN~1\AppData\Local\Temp\ccZZtanm.s:207    .text.puts:0000000000000024 .L0 
                     .debug_frame:0000000000000000 .L0 
C:\Users\GTSAIN~1\AppData\Local\Temp\ccZZtanm.s:47     .text._put_char:0000000000000022 .L2
C:\Users\GTSAIN~1\AppData\Local\Temp\ccZZtanm.s:125    .text._write:0000000000000032 .L8
C:\Users\GTSAIN~1\AppData\Local\Temp\ccZZtanm.s:147    .text._write:0000000000000042 .L16
C:\Users\GTSAIN~1\AppData\Local\Temp\ccZZtanm.s:111    .text._write:0000000000000018 .L10
C:\Users\GTSAIN~1\AppData\Local\Temp\ccZZtanm.s:1987   .debug_abbrev:0000000000000000 .Ldebug_abbrev0
C:\Users\GTSAIN~1\AppData\Local\Temp\ccZZtanm.s:3025   .debug_str:000000000000030a .LASF153
C:\Users\GTSAIN~1\AppData\Local\Temp\ccZZtanm.s:3143   .debug_str:00000000000005fe .LASF154
C:\Users\GTSAIN~1\AppData\Local\Temp\ccZZtanm.s:3045   .debug_str:00000000000003e0 .LASF155
C:\Users\GTSAIN~1\AppData\Local\Temp\ccZZtanm.s:2847   .debug_ranges:0000000000000000 .Ldebug_ranges0
C:\Users\GTSAIN~1\AppData\Local\Temp\ccZZtanm.s:2865   .debug_line:0000000000000000 .Ldebug_line0
C:\Users\GTSAIN~1\AppData\Local\Temp\ccZZtanm.s:2911   .debug_str:00000000000000f1 .LASF0
C:\Users\GTSAIN~1\AppData\Local\Temp\ccZZtanm.s:2881   .debug_str:0000000000000045 .LASF5
C:\Users\GTSAIN~1\AppData\Local\Temp\ccZZtanm.s:3051   .debug_str:0000000000000438 .LASF1
C:\Users\GTSAIN~1\AppData\Local\Temp\ccZZtanm.s:3119   .debug_str:0000000000000580 .LASF2
C:\Users\GTSAIN~1\AppData\Local\Temp\ccZZtanm.s:3131   .debug_str:00000000000005b5 .LASF3
C:\Users\GTSAIN~1\AppData\Local\Temp\ccZZtanm.s:2927   .debug_str:0000000000000147 .LASF4
C:\Users\GTSAIN~1\AppData\Local\Temp\ccZZtanm.s:2951   .debug_str:00000000000001bf .LASF6
C:\Users\GTSAIN~1\AppData\Local\Temp\ccZZtanm.s:2975   .debug_str:0000000000000227 .LASF7
C:\Users\GTSAIN~1\AppData\Local\Temp\ccZZtanm.s:2937   .debug_str:0000000000000170 .LASF8
C:\Users\GTSAIN~1\AppData\Local\Temp\ccZZtanm.s:2915   .debug_str:0000000000000103 .LASF9
C:\Users\GTSAIN~1\AppData\Local\Temp\ccZZtanm.s:3117   .debug_str:0000000000000573 .LASF10
C:\Users\GTSAIN~1\AppData\Local\Temp\ccZZtanm.s:3121   .debug_str:000000000000058a .LASF11
C:\Users\GTSAIN~1\AppData\Local\Temp\ccZZtanm.s:3141   .debug_str:00000000000005f5 .LASF12
C:\Users\GTSAIN~1\AppData\Local\Temp\ccZZtanm.s:2873   .debug_str:0000000000000024 .LASF13
C:\Users\GTSAIN~1\AppData\Local\Temp\ccZZtanm.s:3107   .debug_str:0000000000000547 .LASF14
C:\Users\GTSAIN~1\AppData\Local\Temp\ccZZtanm.s:3035   .debug_str:00000000000003af .LASF15
C:\Users\GTSAIN~1\AppData\Local\Temp\ccZZtanm.s:2907   .debug_str:00000000000000e3 .LASF16
GAS LISTING C:\Users\GTSAIN~1\AppData\Local\Temp\ccZZtanm.s 			page 9


C:\Users\GTSAIN~1\AppData\Local\Temp\ccZZtanm.s:3105   .debug_str:000000000000053f .LASF17
C:\Users\GTSAIN~1\AppData\Local\Temp\ccZZtanm.s:3153   .debug_str:0000000000000648 .LASF18
C:\Users\GTSAIN~1\AppData\Local\Temp\ccZZtanm.s:2995   .debug_str:000000000000028e .LASF19
C:\Users\GTSAIN~1\AppData\Local\Temp\ccZZtanm.s:2967   .debug_str:0000000000000200 .LASF20
C:\Users\GTSAIN~1\AppData\Local\Temp\ccZZtanm.s:3097   .debug_str:000000000000051f .LASF21
C:\Users\GTSAIN~1\AppData\Local\Temp\ccZZtanm.s:3099   .debug_str:0000000000000527 .LASF22
C:\Users\GTSAIN~1\AppData\Local\Temp\ccZZtanm.s:3069   .debug_str:000000000000048e .LASF23
C:\Users\GTSAIN~1\AppData\Local\Temp\ccZZtanm.s:3135   .debug_str:00000000000005cd .LASF24
C:\Users\GTSAIN~1\AppData\Local\Temp\ccZZtanm.s:3041   .debug_str:00000000000003c8 .LASF25
C:\Users\GTSAIN~1\AppData\Local\Temp\ccZZtanm.s:3057   .debug_str:0000000000000455 .LASF26
C:\Users\GTSAIN~1\AppData\Local\Temp\ccZZtanm.s:2959   .debug_str:00000000000001e4 .LASF31
C:\Users\GTSAIN~1\AppData\Local\Temp\ccZZtanm.s:3125   .debug_str:0000000000000599 .LASF27
C:\Users\GTSAIN~1\AppData\Local\Temp\ccZZtanm.s:3091   .debug_str:000000000000050a .LASF28
C:\Users\GTSAIN~1\AppData\Local\Temp\ccZZtanm.s:2953   .debug_str:00000000000001ca .LASF29
C:\Users\GTSAIN~1\AppData\Local\Temp\ccZZtanm.s:3149   .debug_str:000000000000063d .LASF30
C:\Users\GTSAIN~1\AppData\Local\Temp\ccZZtanm.s:2965   .debug_str:00000000000001fb .LASF32
C:\Users\GTSAIN~1\AppData\Local\Temp\ccZZtanm.s:2905   .debug_str:00000000000000da .LASF33
C:\Users\GTSAIN~1\AppData\Local\Temp\ccZZtanm.s:3167   .debug_str:000000000000068d .LASF34
C:\Users\GTSAIN~1\AppData\Local\Temp\ccZZtanm.s:2917   .debug_str:000000000000011a .LASF35
C:\Users\GTSAIN~1\AppData\Local\Temp\ccZZtanm.s:3179   .debug_str:00000000000006c5 .LASF36
C:\Users\GTSAIN~1\AppData\Local\Temp\ccZZtanm.s:3027   .debug_str:0000000000000384 .LASF37
C:\Users\GTSAIN~1\AppData\Local\Temp\ccZZtanm.s:3011   .debug_str:00000000000002cc .LASF38
C:\Users\GTSAIN~1\AppData\Local\Temp\ccZZtanm.s:3103   .debug_str:0000000000000535 .LASF39
C:\Users\GTSAIN~1\AppData\Local\Temp\ccZZtanm.s:3059   .debug_str:000000000000045e .LASF40
C:\Users\GTSAIN~1\AppData\Local\Temp\ccZZtanm.s:3163   .debug_str:0000000000000673 .LASF41
C:\Users\GTSAIN~1\AppData\Local\Temp\ccZZtanm.s:2921   .debug_str:0000000000000129 .LASF42
C:\Users\GTSAIN~1\AppData\Local\Temp\ccZZtanm.s:2871   .debug_str:000000000000001c .LASF43
C:\Users\GTSAIN~1\AppData\Local\Temp\ccZZtanm.s:2867   .debug_str:0000000000000000 .LASF44
C:\Users\GTSAIN~1\AppData\Local\Temp\ccZZtanm.s:3129   .debug_str:00000000000005ac .LASF45
C:\Users\GTSAIN~1\AppData\Local\Temp\ccZZtanm.s:2931   .debug_str:0000000000000157 .LASF46
C:\Users\GTSAIN~1\AppData\Local\Temp\ccZZtanm.s:3029   .debug_str:000000000000038d .LASF47
C:\Users\GTSAIN~1\AppData\Local\Temp\ccZZtanm.s:3083   .debug_str:00000000000004da .LASF48
C:\Users\GTSAIN~1\AppData\Local\Temp\ccZZtanm.s:2949   .debug_str:00000000000001ba .LASF49
C:\Users\GTSAIN~1\AppData\Local\Temp\ccZZtanm.s:3061   .debug_str:0000000000000468 .LASF50
C:\Users\GTSAIN~1\AppData\Local\Temp\ccZZtanm.s:3047   .debug_str:0000000000000422 .LASF51
C:\Users\GTSAIN~1\AppData\Local\Temp\ccZZtanm.s:3115   .debug_str:000000000000056d .LASF52
C:\Users\GTSAIN~1\AppData\Local\Temp\ccZZtanm.s:3071   .debug_str:0000000000000499 .LASF53
C:\Users\GTSAIN~1\AppData\Local\Temp\ccZZtanm.s:2929   .debug_str:0000000000000150 .LASF54
C:\Users\GTSAIN~1\AppData\Local\Temp\ccZZtanm.s:2977   .debug_str:0000000000000239 .LASF55
C:\Users\GTSAIN~1\AppData\Local\Temp\ccZZtanm.s:2895   .debug_str:000000000000009a .LASF56
C:\Users\GTSAIN~1\AppData\Local\Temp\ccZZtanm.s:2923   .debug_str:0000000000000137 .LASF57
C:\Users\GTSAIN~1\AppData\Local\Temp\ccZZtanm.s:2963   .debug_str:00000000000001f5 .LASF58
C:\Users\GTSAIN~1\AppData\Local\Temp\ccZZtanm.s:3009   .debug_str:00000000000002c5 .LASF59
C:\Users\GTSAIN~1\AppData\Local\Temp\ccZZtanm.s:3101   .debug_str:000000000000052f .LASF60
C:\Users\GTSAIN~1\AppData\Local\Temp\ccZZtanm.s:2909   .debug_str:00000000000000ea .LASF61
C:\Users\GTSAIN~1\AppData\Local\Temp\ccZZtanm.s:2913   .debug_str:00000000000000fd .LASF62
C:\Users\GTSAIN~1\AppData\Local\Temp\ccZZtanm.s:3159   .debug_str:0000000000000665 .LASF63
C:\Users\GTSAIN~1\AppData\Local\Temp\ccZZtanm.s:2961   .debug_str:00000000000001ec .LASF64
C:\Users\GTSAIN~1\AppData\Local\Temp\ccZZtanm.s:2943   .debug_str:0000000000000193 .LASF65
C:\Users\GTSAIN~1\AppData\Local\Temp\ccZZtanm.s:2979   .debug_str:000000000000023f .LASF66
C:\Users\GTSAIN~1\AppData\Local\Temp\ccZZtanm.s:3003   .debug_str:00000000000002b0 .LASF67
C:\Users\GTSAIN~1\AppData\Local\Temp\ccZZtanm.s:3075   .debug_str:00000000000004ab .LASF68
C:\Users\GTSAIN~1\AppData\Local\Temp\ccZZtanm.s:3063   .debug_str:000000000000046f .LASF69
C:\Users\GTSAIN~1\AppData\Local\Temp\ccZZtanm.s:3093   .debug_str:0000000000000512 .LASF70
C:\Users\GTSAIN~1\AppData\Local\Temp\ccZZtanm.s:3109   .debug_str:0000000000000553 .LASF71
C:\Users\GTSAIN~1\AppData\Local\Temp\ccZZtanm.s:2933   .debug_str:000000000000015f .LASF72
C:\Users\GTSAIN~1\AppData\Local\Temp\ccZZtanm.s:2971   .debug_str:0000000000000217 .LASF73
GAS LISTING C:\Users\GTSAIN~1\AppData\Local\Temp\ccZZtanm.s 			page 10


C:\Users\GTSAIN~1\AppData\Local\Temp\ccZZtanm.s:2957   .debug_str:00000000000001dc .LASF74
C:\Users\GTSAIN~1\AppData\Local\Temp\ccZZtanm.s:3081   .debug_str:00000000000004d5 .LASF75
C:\Users\GTSAIN~1\AppData\Local\Temp\ccZZtanm.s:2877   .debug_str:0000000000000033 .LASF76
C:\Users\GTSAIN~1\AppData\Local\Temp\ccZZtanm.s:3089   .debug_str:00000000000004f1 .LASF77
C:\Users\GTSAIN~1\AppData\Local\Temp\ccZZtanm.s:3085   .debug_str:00000000000004df .LASF78
C:\Users\GTSAIN~1\AppData\Local\Temp\ccZZtanm.s:3031   .debug_str:0000000000000395 .LASF79
C:\Users\GTSAIN~1\AppData\Local\Temp\ccZZtanm.s:3087   .debug_str:00000000000004e7 .LASF80
C:\Users\GTSAIN~1\AppData\Local\Temp\ccZZtanm.s:2993   .debug_str:0000000000000286 .LASF81
C:\Users\GTSAIN~1\AppData\Local\Temp\ccZZtanm.s:2935   .debug_str:0000000000000166 .LASF82
C:\Users\GTSAIN~1\AppData\Local\Temp\ccZZtanm.s:3175   .debug_str:00000000000006b0 .LASF83
C:\Users\GTSAIN~1\AppData\Local\Temp\ccZZtanm.s:3039   .debug_str:00000000000003be .LASF84
C:\Users\GTSAIN~1\AppData\Local\Temp\ccZZtanm.s:2973   .debug_str:000000000000021f .LASF85
C:\Users\GTSAIN~1\AppData\Local\Temp\ccZZtanm.s:2941   .debug_str:000000000000018b .LASF86
C:\Users\GTSAIN~1\AppData\Local\Temp\ccZZtanm.s:2999   .debug_str:000000000000029c .LASF87
C:\Users\GTSAIN~1\AppData\Local\Temp\ccZZtanm.s:2885   .debug_str:0000000000000057 .LASF88
C:\Users\GTSAIN~1\AppData\Local\Temp\ccZZtanm.s:3157   .debug_str:000000000000065b .LASF89
C:\Users\GTSAIN~1\AppData\Local\Temp\ccZZtanm.s:2925   .debug_str:000000000000013f .LASF90
C:\Users\GTSAIN~1\AppData\Local\Temp\ccZZtanm.s:2919   .debug_str:0000000000000124 .LASF91
C:\Users\GTSAIN~1\AppData\Local\Temp\ccZZtanm.s:3111   .debug_str:000000000000055a .LASF92
C:\Users\GTSAIN~1\AppData\Local\Temp\ccZZtanm.s:3067   .debug_str:0000000000000487 .LASF93
C:\Users\GTSAIN~1\AppData\Local\Temp\ccZZtanm.s:3151   .debug_str:0000000000000642 .LASF94
C:\Users\GTSAIN~1\AppData\Local\Temp\ccZZtanm.s:2981   .debug_str:0000000000000245 .LASF95
C:\Users\GTSAIN~1\AppData\Local\Temp\ccZZtanm.s:3053   .debug_str:0000000000000446 .LASF96
C:\Users\GTSAIN~1\AppData\Local\Temp\ccZZtanm.s:2875   .debug_str:000000000000002b .LASF97
C:\Users\GTSAIN~1\AppData\Local\Temp\ccZZtanm.s:3095   .debug_str:0000000000000519 .LASF98
C:\Users\GTSAIN~1\AppData\Local\Temp\ccZZtanm.s:3005   .debug_str:00000000000002b6 .LASF99
C:\Users\GTSAIN~1\AppData\Local\Temp\ccZZtanm.s:3133   .debug_str:00000000000005c8 .LASF100
C:\Users\GTSAIN~1\AppData\Local\Temp\ccZZtanm.s:3145   .debug_str:0000000000000621 .LASF101
C:\Users\GTSAIN~1\AppData\Local\Temp\ccZZtanm.s:3127   .debug_str:000000000000059f .LASF102
C:\Users\GTSAIN~1\AppData\Local\Temp\ccZZtanm.s:2987   .debug_str:0000000000000263 .LASF103
C:\Users\GTSAIN~1\AppData\Local\Temp\ccZZtanm.s:3165   .debug_str:000000000000067e .LASF104
C:\Users\GTSAIN~1\AppData\Local\Temp\ccZZtanm.s:3033   .debug_str:00000000000003a0 .LASF105
C:\Users\GTSAIN~1\AppData\Local\Temp\ccZZtanm.s:2983   .debug_str:000000000000024c .LASF106
C:\Users\GTSAIN~1\AppData\Local\Temp\ccZZtanm.s:3169   .debug_str:0000000000000696 .LASF107
C:\Users\GTSAIN~1\AppData\Local\Temp\ccZZtanm.s:3079   .debug_str:00000000000004c8 .LASF108
C:\Users\GTSAIN~1\AppData\Local\Temp\ccZZtanm.s:3173   .debug_str:00000000000006a2 .LASF109
C:\Users\GTSAIN~1\AppData\Local\Temp\ccZZtanm.s:2903   .debug_str:00000000000000cc .LASF110
C:\Users\GTSAIN~1\AppData\Local\Temp\ccZZtanm.s:3155   .debug_str:0000000000000651 .LASF111
C:\Users\GTSAIN~1\AppData\Local\Temp\ccZZtanm.s:2985   .debug_str:0000000000000257 .LASF112
C:\Users\GTSAIN~1\AppData\Local\Temp\ccZZtanm.s:3137   .debug_str:00000000000005d5 .LASF113
C:\Users\GTSAIN~1\AppData\Local\Temp\ccZZtanm.s:2947   .debug_str:00000000000001ac .LASF114
C:\Users\GTSAIN~1\AppData\Local\Temp\ccZZtanm.s:2901   .debug_str:00000000000000bd .LASF115
C:\Users\GTSAIN~1\AppData\Local\Temp\ccZZtanm.s:2945   .debug_str:000000000000019b .LASF116
C:\Users\GTSAIN~1\AppData\Local\Temp\ccZZtanm.s:2887   .debug_str:0000000000000060 .LASF117
C:\Users\GTSAIN~1\AppData\Local\Temp\ccZZtanm.s:2889   .debug_str:000000000000006f .LASF118
C:\Users\GTSAIN~1\AppData\Local\Temp\ccZZtanm.s:3055   .debug_str:000000000000044c .LASF119
C:\Users\GTSAIN~1\AppData\Local\Temp\ccZZtanm.s:3023   .debug_str:0000000000000303 .LASF120
C:\Users\GTSAIN~1\AppData\Local\Temp\ccZZtanm.s:3015   .debug_str:00000000000002db .LASF121
C:\Users\GTSAIN~1\AppData\Local\Temp\ccZZtanm.s:3161   .debug_str:000000000000066b .LASF122
C:\Users\GTSAIN~1\AppData\Local\Temp\ccZZtanm.s:2897   .debug_str:00000000000000a3 .LASF156
C:\Users\GTSAIN~1\AppData\Local\Temp\ccZZtanm.s:2955   .debug_str:00000000000001d0 .LASF123
C:\Users\GTSAIN~1\AppData\Local\Temp\ccZZtanm.s:3139   .debug_str:00000000000005e2 .LASF124
C:\Users\GTSAIN~1\AppData\Local\Temp\ccZZtanm.s:2939   .debug_str:000000000000017e .LASF125
C:\Users\GTSAIN~1\AppData\Local\Temp\ccZZtanm.s:3073   .debug_str:00000000000004a1 .LASF126
C:\Users\GTSAIN~1\AppData\Local\Temp\ccZZtanm.s:2969   .debug_str:0000000000000207 .LASF127
C:\Users\GTSAIN~1\AppData\Local\Temp\ccZZtanm.s:3043   .debug_str:00000000000003da .LASF128
C:\Users\GTSAIN~1\AppData\Local\Temp\ccZZtanm.s:2899   .debug_str:00000000000000ae .LASF129
GAS LISTING C:\Users\GTSAIN~1\AppData\Local\Temp\ccZZtanm.s 			page 11


C:\Users\GTSAIN~1\AppData\Local\Temp\ccZZtanm.s:3147   .debug_str:000000000000062e .LASF130
C:\Users\GTSAIN~1\AppData\Local\Temp\ccZZtanm.s:3001   .debug_str:00000000000002a1 .LASF131
C:\Users\GTSAIN~1\AppData\Local\Temp\ccZZtanm.s:3113   .debug_str:000000000000055f .LASF132
C:\Users\GTSAIN~1\AppData\Local\Temp\ccZZtanm.s:3049   .debug_str:0000000000000428 .LASF133
C:\Users\GTSAIN~1\AppData\Local\Temp\ccZZtanm.s:2869   .debug_str:000000000000000c .LASF134
C:\Users\GTSAIN~1\AppData\Local\Temp\ccZZtanm.s:3019   .debug_str:00000000000002eb .LASF135
C:\Users\GTSAIN~1\AppData\Local\Temp\ccZZtanm.s:2893   .debug_str:000000000000008a .LASF136
C:\Users\GTSAIN~1\AppData\Local\Temp\ccZZtanm.s:3177   .debug_str:00000000000006b5 .LASF137
C:\Users\GTSAIN~1\AppData\Local\Temp\ccZZtanm.s:3065   .debug_str:0000000000000477 .LASF138
C:\Users\GTSAIN~1\AppData\Local\Temp\ccZZtanm.s:2883   .debug_str:000000000000004f .LASF139
C:\Users\GTSAIN~1\AppData\Local\Temp\ccZZtanm.s:2997   .debug_str:0000000000000294 .LASF140
C:\Users\GTSAIN~1\AppData\Local\Temp\ccZZtanm.s:3017   .debug_str:00000000000002e4 .LASF141
C:\Users\GTSAIN~1\AppData\Local\Temp\ccZZtanm.s:3021   .debug_str:00000000000002fc .LASF142
C:\Users\GTSAIN~1\AppData\Local\Temp\ccZZtanm.s:3123   .debug_str:0000000000000592 .LASF143
C:\Users\GTSAIN~1\AppData\Local\Temp\ccZZtanm.s:3171   .debug_str:000000000000069b .LASF144
C:\Users\GTSAIN~1\AppData\Local\Temp\ccZZtanm.s:3007   .debug_str:00000000000002bc .LASF145
C:\Users\GTSAIN~1\AppData\Local\Temp\ccZZtanm.s:2891   .debug_str:0000000000000080 .LASF146
C:\Users\GTSAIN~1\AppData\Local\Temp\ccZZtanm.s:14     .text._put_char:0000000000000000 .LFB6
C:\Users\GTSAIN~1\AppData\Local\Temp\ccZZtanm.s:71     .text._put_char:000000000000003c .LFE6
C:\Users\GTSAIN~1\AppData\Local\Temp\ccZZtanm.s:2633   .debug_loc:0000000000000000 .LLST0
C:\Users\GTSAIN~1\AppData\Local\Temp\ccZZtanm.s:2651   .debug_loc:000000000000002c .LLST1
C:\Users\GTSAIN~1\AppData\Local\Temp\ccZZtanm.s:45     .text._put_char:0000000000000022 .LVL2
C:\Users\GTSAIN~1\AppData\Local\Temp\ccZZtanm.s:53     .text._put_char:000000000000002e .LVL3
C:\Users\GTSAIN~1\AppData\Local\Temp\ccZZtanm.s:3013   .debug_str:00000000000002d6 .LASF147
C:\Users\GTSAIN~1\AppData\Local\Temp\ccZZtanm.s:167    .text.puts:0000000000000000 .LFB5
C:\Users\GTSAIN~1\AppData\Local\Temp\ccZZtanm.s:205    .text.puts:0000000000000024 .LFE5
C:\Users\GTSAIN~1\AppData\Local\Temp\ccZZtanm.s:2666   .debug_loc:0000000000000055 .LLST8
C:\Users\GTSAIN~1\AppData\Local\Temp\ccZZtanm.s:2879   .debug_str:000000000000003e .LASF148
C:\Users\GTSAIN~1\AppData\Local\Temp\ccZZtanm.s:2684   .debug_loc:0000000000000081 .LLST9
C:\Users\GTSAIN~1\AppData\Local\Temp\ccZZtanm.s:184    .text.puts:0000000000000010 .LVL14
C:\Users\GTSAIN~1\AppData\Local\Temp\ccZZtanm.s:203    .text.puts:0000000000000024 .LVL16
C:\Users\GTSAIN~1\AppData\Local\Temp\ccZZtanm.s:78     .text._write:0000000000000000 .LFB4
C:\Users\GTSAIN~1\AppData\Local\Temp\ccZZtanm.s:160    .text._write:0000000000000052 .LFE4
C:\Users\GTSAIN~1\AppData\Local\Temp\ccZZtanm.s:2706   .debug_loc:00000000000000b8 .LLST2
C:\Users\GTSAIN~1\AppData\Local\Temp\ccZZtanm.s:2729   .debug_loc:00000000000000f0 .LLST3
C:\Users\GTSAIN~1\AppData\Local\Temp\ccZZtanm.s:2743   .debug_loc:0000000000000111 .LLST4
C:\Users\GTSAIN~1\AppData\Local\Temp\ccZZtanm.s:2757   .debug_loc:0000000000000132 .LLST5
C:\Users\GTSAIN~1\AppData\Local\Temp\ccZZtanm.s:3037   .debug_str:00000000000003b6 .LASF149
C:\Users\GTSAIN~1\AppData\Local\Temp\ccZZtanm.s:2776   .debug_loc:0000000000000166 .LLST6
C:\Users\GTSAIN~1\AppData\Local\Temp\ccZZtanm.s:2790   .debug_loc:0000000000000187 .LLST7
C:\Users\GTSAIN~1\AppData\Local\Temp\ccZZtanm.s:117    .text._write:0000000000000026 .LVL8
C:\Users\GTSAIN~1\AppData\Local\Temp\ccZZtanm.s:154    .text._write:000000000000004c .LVL12
C:\Users\GTSAIN~1\AppData\Local\Temp\ccZZtanm.s:3077   .debug_str:00000000000004b4 .LASF150
C:\Users\GTSAIN~1\AppData\Local\Temp\ccZZtanm.s:2991   .debug_str:0000000000000277 .LASF151
C:\Users\GTSAIN~1\AppData\Local\Temp\ccZZtanm.s:2989   .debug_str:0000000000000270 .LASF152
C:\Users\GTSAIN~1\AppData\Local\Temp\ccZZtanm.s:22     .text._put_char:0000000000000002 .LCFI0
C:\Users\GTSAIN~1\AppData\Local\Temp\ccZZtanm.s:67     .text._put_char:000000000000003a .LCFI1
C:\Users\GTSAIN~1\AppData\Local\Temp\ccZZtanm.s:18     .text._put_char:0000000000000000 .LVL0
C:\Users\GTSAIN~1\AppData\Local\Temp\ccZZtanm.s:37     .text._put_char:0000000000000014 .LVL1
C:\Users\GTSAIN~1\AppData\Local\Temp\ccZZtanm.s:65     .text._put_char:0000000000000038 .LVL4
C:\Users\GTSAIN~1\AppData\Local\Temp\ccZZtanm.s:174    .text.puts:0000000000000002 .LCFI5
C:\Users\GTSAIN~1\AppData\Local\Temp\ccZZtanm.s:199    .text.puts:000000000000001c .LCFI6
C:\Users\GTSAIN~1\AppData\Local\Temp\ccZZtanm.s:170    .text.puts:0000000000000000 .LVL13
C:\Users\GTSAIN~1\AppData\Local\Temp\ccZZtanm.s:189    .text.puts:0000000000000014 .LVL15
C:\Users\GTSAIN~1\AppData\Local\Temp\ccZZtanm.s:89     .text._write:0000000000000002 .LCFI2
C:\Users\GTSAIN~1\AppData\Local\Temp\ccZZtanm.s:143    .text._write:0000000000000040 .LCFI3
C:\Users\GTSAIN~1\AppData\Local\Temp\ccZZtanm.s:148    .text._write:0000000000000042 .LCFI4
GAS LISTING C:\Users\GTSAIN~1\AppData\Local\Temp\ccZZtanm.s 			page 12


C:\Users\GTSAIN~1\AppData\Local\Temp\ccZZtanm.s:81     .text._write:0000000000000000 .LVL5
C:\Users\GTSAIN~1\AppData\Local\Temp\ccZZtanm.s:110    .text._write:0000000000000018 .LVL6
C:\Users\GTSAIN~1\AppData\Local\Temp\ccZZtanm.s:141    .text._write:000000000000003e .LVL10
C:\Users\GTSAIN~1\AppData\Local\Temp\ccZZtanm.s:146    .text._write:0000000000000042 .LVL11
C:\Users\GTSAIN~1\AppData\Local\Temp\ccZZtanm.s:115    .text._write:000000000000001e .LVL7
C:\Users\GTSAIN~1\AppData\Local\Temp\ccZZtanm.s:122    .text._write:000000000000002e .LVL9
C:\Users\GTSAIN~1\AppData\Local\Temp\ccZZtanm.s:223    .debug_info:0000000000000000 .Ldebug_info0
C:\Users\GTSAIN~1\AppData\Local\Temp\ccZZtanm.s:84     .text._write:0000000000000000 .LBB2
C:\Users\GTSAIN~1\AppData\Local\Temp\ccZZtanm.s:86     .text._write:0000000000000000 .LBE2
C:\Users\GTSAIN~1\AppData\Local\Temp\ccZZtanm.s:103    .text._write:000000000000000e .LBB3
C:\Users\GTSAIN~1\AppData\Local\Temp\ccZZtanm.s:126    .text._write:0000000000000032 .LBE3
C:\Users\GTSAIN~1\AppData\Local\Temp\ccZZtanm.s:150    .text._write:0000000000000042 .LBB4
C:\Users\GTSAIN~1\AppData\Local\Temp\ccZZtanm.s:158    .text._write:0000000000000052 .LBE4

UNDEFINED SYMBOLS
usart_data_transmit
usart_flag_get
strlen
